(lp0
(lp1
S'test_monster_output_indland.in_'
p2
aI100
aI8285
aI769
aF0.031
aF0.119
aF0.15
aa(lp3
S'pia_kj\xc3\xa6rsgaard'
p4
aI1
aF0.0
aI-3
aS'0.0% (0/3)'
p5
aI0
aS'-1.0 (-3)'
p6
aF0.005
aF1.39
aa(lp7
S'bende_bendts'
p8
aI1
aF0.0
aI0
aS'0.0% (0/0)'
p9
aI0
aS'0 (0)'
p10
aF0.001
aF1.285
aa(lp11
S'lar_l\xc3\xb8kke'
p12
aI1
aF0.0
aI2
aS'0.0% (0/0)'
p13
aI0
aS'0 (0)'
p14
aF0.004
aF1.263
aa(lp15
S'margrethe_vestage'
p16
aI1
aF0.0
aI3
aS'0.0% (0/0)'
p17
aI0
aS'0 (0)'
p18
aF0.003
aF1.252
aa(lp19
S'mort_\xc3\xb8stergaard'
p20
aI2
aF0.0
aI2
aS'0.0% (0/1)'
p21
aI0
aS'-1.0 (-1)'
p22
aF0.008
aF1.288
aa(lp23
S'test_monster_output_indland.in_'
p24
aI100
aI8285
aI769
aF0.024
aF0.109
aF0.133
aa(lp25
S'pia_kj\xc3\xa6rsgaard'
p26
aI1
aF0.0
aI-3
aa(lp27
S'bende_bendts'
p28
aI1
aF0.0
aI0
aa(lp29
S'lar_l\xc3\xb8kke'
p30
aI1
aF0.0
aI2
aa(lp31
S'margrethe_vestage'
p32
aI1
aF0.0
aI3
aa(lp33
S'mort_\xc3\xb8stergaard'
p34
aI2
aF0.0
aI2
aa(lp35
S'test_monster_output_indland.in_'
p36
aI100
aI8285
aI769
aF0.03
aF0.119
aF0.149
aa(lp37
S'pia_kj\xc3\xa6rsgaard'
p38
aI1
aF0.0
aI-3
aa(lp39
S'bende_bendts'
p40
aI1
aF0.0
aI0
aa(lp41
S'lar_l\xc3\xb8kke'
p42
aI1
aF0.0
aI2
aa(lp43
S'margrethe_vestage'
p44
aI1
aF0.0
aI3
aa(lp45
S'mort_\xc3\xb8stergaard'
p46
aI2
aF0.0
aI2
aa(lp47
S'pia_kj\xc3\xa6rsgaard'
p48
aI1
aF0.0
aI-3
aa(lp49
S'bende_bendts'
p50
aI1
aF0.0
aI0
aa(lp51
S'lar_l\xc3\xb8kke'
p52
aI1
aF0.0
aI2
aa(lp53
S'margrethe_vestage'
p54
aI1
aF0.0
aI3
aa(lp55
S'mort_\xc3\xb8stergaard'
p56
aI2
aF0.0
aI2
aa(lp57
S'pia_kj\xc3\xa6rsgaard'
p58
aI1
aF0.0
aI-3
aa(lp59
S'bende_bendts'
p60
aI1
aF0.0
aI0
aa(lp61
S'lar_l\xc3\xb8kke'
p62
aI1
aF0.0
aI2
aa(lp63
S'margrethe_vestage'
p64
aI1
aF0.0
aI3
aa(lp65
S'mort_\xc3\xb8stergaard'
p66
aI2
aF0.0
aI2
aa(lp67
S'pia_kj\xc3\xa6rsgaard'
p68
aI1
aF0.0
aI-3
aa(lp69
S'bende_bendts'
p70
aI1
aF0.0
aI0
aa(lp71
S'lar_l\xc3\xb8kke'
p72
aI1
aF0.0
aI2
aa(lp73
S'margrethe_vestage'
p74
aI1
aF0.0
aI3
aa(lp75
S'mort_\xc3\xb8stergaard'
p76
aI2
aF0.0
aI2
aa(lp77
S'pia_kj\xc3\xa6rsgaard'
p78
aI1
aF0.0
aI-3
aa(lp79
S'bende_bendts'
p80
aI1
aF0.0
aI0
aa(lp81
S'lar_l\xc3\xb8kke'
p82
aI1
aF0.0
aI2
aa(lp83
S'margrethe_vestage'
p84
aI1
aF0.0
aI3
aa(lp85
S'mort_\xc3\xb8stergaard'
p86
aI2
aF0.0
aI2
aa(lp87
S'pia_kj\xc3\xa6rsgaard'
p88
aI1
aF0.0
aI-3
aa(lp89
S'bende_bendts'
p90
aI1
aF0.0
aI0
aa(lp91
S'lar_l\xc3\xb8kke'
p92
aI1
aF0.0
aI2
aa(lp93
S'margrethe_vestage'
p94
aI1
aF0.0
aI3
aa(lp95
S'mort_\xc3\xb8stergaard'
p96
aI2
aF0.0
aI2
aa(lp97
S'pia_kj\xc3\xa6rsgaard'
p98
aI1
aF0.0
aI-3
aa(lp99
S'bende_bendts'
p100
aI1
aF0.0
aI0
aa(lp101
S'lar_l\xc3\xb8kke'
p102
aI1
aF0.0
aI2
aa(lp103
S'margrethe_vestage'
p104
aI1
aF0.0
aI3
aa(lp105
S'mort_\xc3\xb8stergaard'
p106
aI2
aF0.0
aI2
aa(lp107
S'pia_kj\xc3\xa6rsgaard'
p108
aI1
aF0.0
aI-3
aa(lp109
S'bende_bendts'
p110
aI1
aF0.0
aI0
aa(lp111
S'lar_l\xc3\xb8kke'
p112
aI1
aF0.0
aI2
aa(lp113
S'margrethe_vestage'
p114
aI1
aF0.0
aI3
aa(lp115
S'mort_\xc3\xb8stergaard'
p116
aI2
aF0.0
aI2
aa(lp117
S'pia_kj\xc3\xa6rsgaard'
p118
aI1
aF0.0
aI-3
aa(lp119
S'bende_bendts'
p120
aI1
aF0.0
aI0
aa(lp121
S'lar_l\xc3\xb8kke'
p122
aI1
aF0.0
aI2
aa(lp123
S'margrethe_vestage'
p124
aI1
aF0.0
aI3
aa(lp125
S'mort_\xc3\xb8stergaard'
p126
aI2
aF0.0
aI2
aa(lp127
S'pia_kj\xc3\xa6rsgaard'
p128
aI1
aF0.0
aI-3
aa(lp129
S'bende_bendts'
p130
aI1
aF0.0
aI0
aa(lp131
S'lar_l\xc3\xb8kke'
p132
aI1
aF0.0
aI2
aa(lp133
S'margrethe_vestage'
p134
aI1
aF0.0
aI3
aa(lp135
S'mort_\xc3\xb8stergaard'
p136
aI2
aF0.0
aI2
aa(lp137
S'pia_kj\xc3\xa6rsgaard'
p138
aI1
aF0.0
aI-3
aa(lp139
S'bende_bendts'
p140
aI1
aF0.0
aI0
aa(lp141
S'lar_l\xc3\xb8kke'
p142
aI1
aF0.0
aI2
aa(lp143
S'margrethe_vestage'
p144
aI1
aF0.0
aI3
aa(lp145
S'mort_\xc3\xb8stergaard'
p146
aI2
aF0.0
aI2
aa(lp147
S'pia_kj\xc3\xa6rsgaard'
p148
aI1
aF0.0
aI-3
aa(lp149
S'bende_bendts'
p150
aI1
aF0.0
aI0
aa(lp151
S'lar_l\xc3\xb8kke'
p152
aI1
aF0.0
aI2
aa(lp153
S'margrethe_vestage'
p154
aI1
aF0.0
aI3
aa(lp155
S'mort_\xc3\xb8stergaard'
p156
aI2
aF0.0
aI2
aa(lp157
S'pia_kj\xc3\xa6rsgaard'
p158
aI1
aF0.0
aI-3
aa(lp159
S'bende_bendts'
p160
aI1
aF0.0
aI0
aa(lp161
S'lar_l\xc3\xb8kke'
p162
aI1
aF0.0
aI2
aa(lp163
S'margrethe_vestage'
p164
aI1
aF0.0
aI3
aa(lp165
S'mort_\xc3\xb8stergaard'
p166
aI2
aF0.0
aI2
aa(lp167
S'pia_kj\xc3\xa6rsgaard'
p168
aI1
aF0.0
aI-3
aa(lp169
S'bende_bendts'
p170
aI1
aF0.0
aI0
aa(lp171
S'lar_l\xc3\xb8kke'
p172
aI1
aF0.0
aI2
aa(lp173
S'margrethe_vestage'
p174
aI1
aF0.0
aI3
aa(lp175
S'mort_\xc3\xb8stergaard'
p176
aI2
aF0.0
aI2
aa(lp177
S'pia_kj\xc3\xa6rsgaard'
p178
aI1
aF0.0
aI-3
aa(lp179
S'pia_kj\xc3\xa6rsgaard'
p180
aI1
aF0.0
aI-3
aa(lp181
S'pia_kj\xc3\xa6rsgaard'
p182
aI1
aF0.0
aI-3
aa(lp183
S'bende_bendts'
p184
aI1
aF0.0
aI0
aa(lp185
S'lar_l\xc3\xb8kke'
p186
aI1
aF0.0
aI2
aa(lp187
S'margrethe_vestage'
p188
aI1
aF0.0
aI3
aa(lp189
S'mort_\xc3\xb8stergaard'
p190
aI2
aF0.0
aI2
aa(lp191
S'pia_kj\xc3\xa6rsgaard'
p192
aI1
aF0.0
aI-3
aa(lp193
S'bende_bendts'
p194
aI1
aF0.0
aI0
aa(lp195
S'lar_l\xc3\xb8kke'
p196
aI1
aF0.0
aI2
aa(lp197
S'margrethe_vestage'
p198
aI1
aF0.0
aI3
aa(lp199
S'mort_\xc3\xb8stergaard'
p200
aI2
aF0.0
aI2
aa(lp201
S'pia_kj\xc3\xa6rsgaard'
p202
aI1
aF0.0
aI-3
aa(lp203
S'bende_bendts'
p204
aI1
aF0.0
aI0
aa(lp205
S'lar_l\xc3\xb8kke'
p206
aI1
aF0.0
aI2
aa(lp207
S'margrethe_vestage'
p208
aI1
aF0.0
aI3
aa(lp209
S'mort_\xc3\xb8stergaard'
p210
aI2
aF0.0
aI2
aa(lp211
S'pia_kj\xc3\xa6rsgaard'
p212
aI1
aF0.0
aI-3
aa(lp213
S'bende_bendts'
p214
aI1
aF0.0
aI0
aa(lp215
S'lar_l\xc3\xb8kke'
p216
aI1
aF0.0
aI2
aa(lp217
S'margrethe_vestage'
p218
aI1
aF0.0
aI3
aa(lp219
S'mort_\xc3\xb8stergaard'
p220
aI2
aF0.0
aI2
aa(lp221
S'pia_kj\xc3\xa6rsgaard'
p222
aI1
aF0.0
aI-3
aa(lp223
S'bende_bendts'
p224
aI1
aF0.0
aI0
aa(lp225
S'lar_l\xc3\xb8kke'
p226
aI1
aF0.0
aI2
aa(lp227
S'margrethe_vestage'
p228
aI1
aF0.0
aI3
aa(lp229
S'mort_\xc3\xb8stergaard'
p230
aI2
aF0.0
aI2
aa(lp231
S'pia_kj\xc3\xa6rsgaard'
p232
aI1
aF0.0
aI-3
aa(lp233
S'bende_bendts'
p234
aI1
aF0.0
aI0
aa(lp235
S'lar_l\xc3\xb8kke'
p236
aI1
aF0.0
aI2
aa(lp237
S'margrethe_vestage'
p238
aI1
aF0.0
aI3
aa(lp239
S'mort_\xc3\xb8stergaard'
p240
aI2
aF0.0
aI2
aa(lp241
S'pia_kj\xc3\xa6rsgaard'
p242
aI1
aF0.0
aI-3
aa(lp243
S'bende_bendts'
p244
aI1
aF0.0
aI0
aa(lp245
S'lar_l\xc3\xb8kke'
p246
aI1
aF0.0
aI2
aa(lp247
S'margrethe_vestage'
p248
aI1
aF0.0
aI3
aa(lp249
S'mort_\xc3\xb8stergaard'
p250
aI2
aF0.0
aI2
aa(lp251
S'pia_kj\xc3\xa6rsgaard'
p252
aI1
aF0.0
aI-3
aa(lp253
S'bende_bendts'
p254
aI1
aF0.0
aI0
aa(lp255
S'lar_l\xc3\xb8kke'
p256
aI1
aF0.0
aI2
aa(lp257
S'margrethe_vestage'
p258
aI1
aF0.0
aI3
aa(lp259
S'mort_\xc3\xb8stergaard'
p260
aI2
aF0.0
aI2
aa(lp261
S'pia_kj\xc3\xa6rsgaard'
p262
aI1
aF0.0
aI-3
aa(lp263
S'bende_bendts'
p264
aI1
aF0.0
aI0
aa(lp265
S'lar_l\xc3\xb8kke'
p266
aI1
aF0.0
aI2
aa(lp267
S'margrethe_vestage'
p268
aI1
aF0.0
aI3
aa(lp269
S'mort_\xc3\xb8stergaard'
p270
aI2
aF0.0
aI2
aa(lp271
S'pia_kj\xc3\xa6rsgaard'
p272
aI1
aF0.0
aI-3
aa(lp273
S'bende_bendts'
p274
aI1
aF0.0
aI0
aa(lp275
S'lar_l\xc3\xb8kke'
p276
aI1
aF0.0
aI2
aa(lp277
S'margrethe_vestage'
p278
aI1
aF0.0
aI3
aa(lp279
S'mort_\xc3\xb8stergaard'
p280
aI2
aF0.0
aI2
aa(lp281
S'pia_kj\xc3\xa6rsgaard'
p282
aI1
aF0.0
aI-3
aa(lp283
S'bende_bendts'
p284
aI1
aF0.0
aI0
aa(lp285
S'lar_l\xc3\xb8kke'
p286
aI1
aF0.0
aI2
aa(lp287
S'margrethe_vestage'
p288
aI1
aF0.0
aI3
aa(lp289
S'mort_\xc3\xb8stergaard'
p290
aI2
aF0.0
aI2
aa(lp291
S'pia_kj\xc3\xa6rsgaard'
p292
aI1
aF0.0
aI-3
aa(lp293
S'bende_bendts'
p294
aI1
aF0.0
aI0
aa(lp295
S'lar_l\xc3\xb8kke'
p296
aI1
aF0.0
aI2
aa(lp297
S'margrethe_vestage'
p298
aI1
aF0.0
aI3
aa(lp299
S'mort_\xc3\xb8stergaard'
p300
aI2
aF0.0
aI2
aa(lp301
S'pia_kj\xc3\xa6rsgaard'
p302
aI1
aF0.0
aI-3
aa(lp303
S'bende_bendts'
p304
aI1
aF0.0
aI0
aa(lp305
S'lar_l\xc3\xb8kke'
p306
aI1
aF0.0
aI2
aa(lp307
S'margrethe_vestage'
p308
aI1
aF0.0
aI3
aa(lp309
S'mort_\xc3\xb8stergaard'
p310
aI2
aF0.0
aI2
aa(lp311
S'pia_kj\xc3\xa6rsgaard'
p312
aI1
aF0.0
aI-3
aa(lp313
S'bende_bendts'
p314
aI1
aF0.0
aI0
aa(lp315
S'lar_l\xc3\xb8kke'
p316
aI1
aF0.0
aI2
aa(lp317
S'margrethe_vestage'
p318
aI1
aF0.0
aI3
aa(lp319
S'mort_\xc3\xb8stergaard'
p320
aI2
aF0.0
aI2
aa(lp321
S'pia_kj\xc3\xa6rsgaard'
p322
aI1
aF0.0
aI-3
aa(lp323
S'bende_bendts'
p324
aI1
aF0.0
aI0
aa(lp325
S'lar_l\xc3\xb8kke'
p326
aI1
aF0.0
aI2
aa(lp327
S'margrethe_vestage'
p328
aI1
aF0.0
aI3
aa(lp329
S'mort_\xc3\xb8stergaard'
p330
aI2
aF0.0
aI2
aa(lp331
S'pia_kj\xc3\xa6rsgaard'
p332
aI1
aF0.0
aI-3
aa(lp333
S'bende_bendts'
p334
aI1
aF0.0
aI0
aa(lp335
S'lar_l\xc3\xb8kke'
p336
aI1
aF0.0
aI2
aa(lp337
S'margrethe_vestage'
p338
aI1
aF0.0
aI3
aa(lp339
S'mort_\xc3\xb8stergaard'
p340
aI2
aF0.0
aI2
aa(lp341
S'pia_kj\xc3\xa6rsgaard'
p342
aI1
aF0.0
aI-3
aa(lp343
S'bende_bendts'
p344
aI1
aF0.0
aI0
aa(lp345
S'lar_l\xc3\xb8kke'
p346
aI1
aF0.0
aI2
aa(lp347
S'margrethe_vestage'
p348
aI1
aF0.0
aI3
aa(lp349
S'mort_\xc3\xb8stergaard'
p350
aI2
aF0.0
aI2
aa(lp351
S'pia_kj\xc3\xa6rsgaard'
p352
aI1
aF0.0
aI-3
aa(lp353
S'bende_bendts'
p354
aI1
aF0.0
aI0
aa(lp355
S'lar_l\xc3\xb8kke'
p356
aI1
aF0.0
aI2
aa(lp357
S'margrethe_vestage'
p358
aI1
aF0.0
aI3
aa(lp359
S'mort_\xc3\xb8stergaard'
p360
aI2
aF0.0
aI2
aa(lp361
S'pia_kj\xc3\xa6rsgaard'
p362
aI1
aF0.0
aI-3
aa(lp363
S'bende_bendts'
p364
aI1
aF0.0
aI0
aa(lp365
S'lar_l\xc3\xb8kke'
p366
aI1
aF0.0
aI2
aa(lp367
S'margrethe_vestage'
p368
aI1
aF0.0
aI3
aa(lp369
S'mort_\xc3\xb8stergaard'
p370
aI2
aF0.0
aI2
aa(lp371
S'pia_kj\xc3\xa6rsgaard'
p372
aI1
aF0.0
aI-3
aa(lp373
S'bende_bendts'
p374
aI1
aF0.0
aI0
aa(lp375
S'lar_l\xc3\xb8kke'
p376
aI1
aF0.0
aI2
aa(lp377
S'margrethe_vestage'
p378
aI1
aF0.0
aI3
aa(lp379
S'mort_\xc3\xb8stergaard'
p380
aI2
aF0.0
aI2
aa(lp381
S'pet|peter_skaarup'
p382
aI84
aF0.0
aI207
aa(lp383
S'pia_kj\xc3\xa6rsgaard'
p384
aI100
aF0.001
aI285
aa(lp385
S'kristian_thules'
p386
aI64
aF0.0
aI293
aa(lp387
S'bende_bendts'
p388
aI34
aF0.001
aI133
aa(lp389
S's\xc3\xb8ren_pape'
p390
aI16
aF0.0
aI107
aa(lp391
S'joachim_b._olse'
p392
aI8
aF0.0
aI56
aa(lp393
S'ande_samuelse'
p394
aI38
aF0.0
aI160
aa(lp395
S'ing_st\xc3\xb8jberg'
p396
aI81
aF0.001
aI202
aa(lp397
S'lar_l\xc3\xb8kke'
p398
aI322
aF0.002
aI1084
aa(lp399
S'margrethe_vestage'
p400
aI107
aF0.001
aI497
aa(lp401
S'mort_\xc3\xb8stergaard'
p402
aI94
aF0.001
aI390
aa(lp403
S'helle_thorning'
p404
aI47
aF0.0
aI207
aa(lp405
S'thorning'
p406
aI98
aF0.001
aI387
aa(lp407
S'mette_frederiks'
p408
aI133
aF0.001
aI605
aa(lp409
S'uffe_elb\xc3\xa6k'
p410
aI19
aF0.0
aI119
aa(lp411
S'johanne_schmidt-nielse'
p412
aI130
aF0.001
aI443
aa(lp413
S'pet|peter_skaarup'
p414
aI84
aF0.0
aI207
aa(lp415
S'pia_kj\xc3\xa6rsgaard'
p416
aI100
aF0.0
aI285
aa(lp417
S'kristian_thules'
p418
aI64
aF0.0
aI293
aa(lp419
S'bende_bendts'
p420
aI34
aF0.0
aI133
aa(lp421
S's\xc3\xb8ren_pape'
p422
aI16
aF0.0
aI107
aa(lp423
S'joachim_b._olse'
p424
aI8
aF0.0
aI56
aa(lp425
S'ande_samuelse'
p426
aI38
aF0.0
aI160
aa(lp427
S'ing_st\xc3\xb8jberg'
p428
aI81
aF0.0
aI202
aa(lp429
S'lar_l\xc3\xb8kke'
p430
aI322
aF0.001
aI1084
aa(lp431
S'margrethe_vestage'
p432
aI107
aF0.0
aI497
aa(lp433
S'mort_\xc3\xb8stergaard'
p434
aI94
aF0.0
aI390
aa(lp435
S'helle_thorning'
p436
aI47
aF0.0
aI207
aa(lp437
S'thorning'
p438
aI98
aF0.0
aI387
aa(lp439
S'mette_frederiks'
p440
aI133
aF0.001
aI605
aa(lp441
S'uffe_elb\xc3\xa6k'
p442
aI19
aF0.0
aI119
aa(lp443
S'johanne_schmidt-nielse'
p444
aI130
aF0.001
aI443
aa(lp445
S'pet|peter_skaarup'
p446
aI84
aF0.0
aI207
aa(lp447
S'pia_kj\xc3\xa6rsgaard'
p448
aI100
aF0.0
aI285
aa(lp449
S'kristian_thules'
p450
aI64
aF0.0
aI293
aa(lp451
S'bende_bendts'
p452
aI34
aF0.0
aI133
aa(lp453
S's\xc3\xb8ren_pape'
p454
aI16
aF0.0
aI107
aa(lp455
S'joachim_b._olse'
p456
aI8
aF0.0
aI56
aa(lp457
S'ande_samuelse'
p458
aI38
aF0.0
aI160
aa(lp459
S'ing_st\xc3\xb8jberg'
p460
aI81
aF0.0
aI202
aa(lp461
S'lar_l\xc3\xb8kke'
p462
aI322
aF0.001
aI1084
aa(lp463
S'margrethe_vestage'
p464
aI107
aF0.001
aI497
aa(lp465
S'mort_\xc3\xb8stergaard'
p466
aI94
aF0.0
aI390
aa(lp467
S'helle_thorning'
p468
aI47
aF0.0
aI207
aa(lp469
S'thorning'
p470
aI98
aF0.001
aI387
aa(lp471
S'mette_frederiks'
p472
aI133
aF0.001
aI605
aa(lp473
S'uffe_elb\xc3\xa6k'
p474
aI19
aF0.0
aI119
aa(lp475
S'johanne_schmidt-nielse'
p476
aI130
aF0.001
aI443
aa(lp477
S'pet|peter_skaarup'
p478
aI84
aF0.0
aI207
aa(lp479
S'pia_kj\xc3\xa6rsgaard'
p480
aI100
aF0.0
aI285
aa(lp481
S'kristian_thules'
p482
aI64
aF0.001
aI293
aa(lp483
S'bende_bendts'
p484
aI34
aF0.0
aI133
aa(lp485
S's\xc3\xb8ren_pape'
p486
aI16
aF0.0
aI107
aa(lp487
S'joachim_b._olse'
p488
aI8
aF0.0
aI56
aa(lp489
S'ande_samuelse'
p490
aI38
aF0.0
aI160
aa(lp491
S'ing_st\xc3\xb8jberg'
p492
aI81
aF0.0
aI202
aa(lp493
S'lar_l\xc3\xb8kke'
p494
aI322
aF0.001
aI1084
aa(lp495
S'margrethe_vestage'
p496
aI107
aF0.0
aI497
aa(lp497
S'mort_\xc3\xb8stergaard'
p498
aI94
aF0.0
aI390
aa(lp499
S'helle_thorning'
p500
aI47
aF0.0
aI207
aa(lp501
S'thorning'
p502
aI98
aF0.001
aI387
aa(lp503
S'mette_frederiks'
p504
aI133
aF0.001
aI605
aa(lp505
S'uffe_elb\xc3\xa6k'
p506
aI19
aF0.0
aI119
aa(lp507
S'johanne_schmidt-nielse'
p508
aI130
aF0.001
aI443
aa(lp509
S'thorning'
p510
aI98
aF0.0
aI387
aa(lp511
S'thorning'
p512
aI98
aF0.0
aI387
aa(lp513
S'thorning'
p514
aI98
aF0.0
aI387
aa(lp515
S'thorning'
p516
aI98
aF0.0
aI387
aa(lp517
S'pet|peter_skaarup'
p518
aI84
aF0.0
aI207
aa(lp519
S'pia_kj\xc3\xa6rsgaard'
p520
aI100
aF0.001
aI285
aa(lp521
S'kristian_thules'
p522
aI64
aF0.0
aI293
aa(lp523
S'bende_bendts'
p524
aI34
aF0.0
aI133
aa(lp525
S's\xc3\xb8ren_pape'
p526
aI16
aF0.0
aI107
aa(lp527
S'joachim_b._olse'
p528
aI8
aF0.0
aI56
aa(lp529
S'ande_samuelse'
p530
aI38
aF0.0
aI160
aa(lp531
S'ing_st\xc3\xb8jberg'
p532
aI81
aF0.0
aI202
aa(lp533
S'lar_l\xc3\xb8kke'
p534
aI322
aF0.001
aI1081
aa(lp535
S'margrethe_vestage'
p536
aI107
aF0.0
aI497
aa(lp537
S'mort_\xc3\xb8stergaard'
p538
aI94
aF0.0
aI392
aa(lp539
S'helle_thorning'
p540
aI47
aF0.0
aI207
aa(lp541
S'thorning'
p542
aI98
aF0.001
aI387
aa(lp543
S'mette_frederiks'
p544
aI133
aF0.001
aI605
aa(lp545
S'uffe_elb\xc3\xa6k'
p546
aI19
aF0.0
aI119
aa(lp547
S'johanne_schmidt-nielse'
p548
aI130
aF0.001
aI449
aa(lp549
S'pet|peter_skaarup'
p550
aI84
aF0.0
aI207
aa(lp551
S'pia_kj\xc3\xa6rsgaard'
p552
aI100
aF0.0
aI285
aa(lp553
S'kristian_thules'
p554
aI64
aF0.0
aI293
aa(lp555
S'bende_bendts'
p556
aI34
aF0.0
aI133
aa(lp557
S's\xc3\xb8ren_pape'
p558
aI16
aF0.0
aI107
aa(lp559
S'joachim_b._olse'
p560
aI8
aF0.0
aI56
aa(lp561
S'ande_samuelse'
p562
aI38
aF0.0
aI160
aa(lp563
S'ing_st\xc3\xb8jberg'
p564
aI81
aF0.0
aI202
aa(lp565
S'lar_l\xc3\xb8kke'
p566
aI322
aF0.001
aI1081
aa(lp567
S'margrethe_vestage'
p568
aI107
aF0.0
aI497
aa(lp569
S'mort_\xc3\xb8stergaard'
p570
aI94
aF0.0
aI392
aa(lp571
S'helle_thorning'
p572
aI47
aF0.0
aI207
aa(lp573
S'thorning'
p574
aI98
aF0.0
aI387
aa(lp575
S'mette_frederiks'
p576
aI133
aF0.001
aI605
aa(lp577
S'uffe_elb\xc3\xa6k'
p578
aI19
aF0.0
aI119
aa(lp579
S'johanne_schmidt-nielse'
p580
aI130
aF0.001
aI449
aa(lp581
S'pet|peter_skaarup'
p582
aI84
aF0.0
aI207
aa(lp583
S'pia_kj\xc3\xa6rsgaard'
p584
aI100
aF0.0
aI285
aa(lp585
S'kristian_thules'
p586
aI64
aF0.0
aI293
aa(lp587
S'bende_bendts'
p588
aI34
aF0.0
aI133
aa(lp589
S's\xc3\xb8ren_pape'
p590
aI16
aF0.0
aI107
aa(lp591
S'joachim_b._olse'
p592
aI8
aF0.0
aI56
aa(lp593
S'ande_samuelse'
p594
aI38
aF0.0
aI160
aa(lp595
S'ing_st\xc3\xb8jberg'
p596
aI81
aF0.0
aI202
aa(lp597
S'lar_l\xc3\xb8kke'
p598
aI322
aF0.001
aI1081
aa(lp599
S'margrethe_vestage'
p600
aI107
aF0.0
aI497
aa(lp601
S'mort_\xc3\xb8stergaard'
p602
aI94
aF0.0
aI392
aa(lp603
S'helle_thorning'
p604
aI47
aF0.0
aI207
aa(lp605
S'thorning'
p606
aI98
aF0.0
aI387
aa(lp607
S'mette_frederiks'
p608
aI133
aF0.001
aI605
aa(lp609
S'uffe_elb\xc3\xa6k'
p610
aI19
aF0.0
aI119
aa(lp611
S'johanne_schmidt-nielse'
p612
aI130
aF0.001
aI449
aa(lp613
S'pet|peter_skaarup'
p614
aI84
aF0.001
aI207
aa(lp615
S'pia_kj\xc3\xa6rsgaard'
p616
aI100
aF0.001
aI285
aa(lp617
S'kristian_thules'
p618
aI64
aF0.001
aI293
aa(lp619
S'bende_bendts'
p620
aI34
aF0.0
aI133
aa(lp621
S's\xc3\xb8ren_pape'
p622
aI16
aF0.0
aI107
aa(lp623
S'joachim_b._olse'
p624
aI8
aF0.0
aI56
aa(lp625
S'ande_samuelse'
p626
aI38
aF0.0
aI160
aa(lp627
S'ing_st\xc3\xb8jberg'
p628
aI81
aF0.001
aI202
aa(lp629
S'lar_l\xc3\xb8kke'
p630
aI322
aF0.002
aI1081
aa(lp631
S'margrethe_vestage'
p632
aI107
aF0.001
aI497
aa(lp633
S'mort_\xc3\xb8stergaard'
p634
aI94
aF0.0
aI392
aa(lp635
S'helle_thorning'
p636
aI47
aF0.0
aI207
aa(lp637
S'thorning'
p638
aI98
aF0.001
aI387
aa(lp639
S'mette_frederiks'
p640
aI133
aF0.001
aI605
aa(lp641
S'uffe_elb\xc3\xa6k'
p642
aI19
aF0.0
aI119
aa(lp643
S'johanne_schmidt-nielse'
p644
aI130
aF0.001
aI449
aa(lp645
S'pet|peter_skaarup'
p646
aI84
aF0.0
aI207
aa(lp647
S'pia_kj\xc3\xa6rsgaard'
p648
aI100
aF0.0
aI285
aa(lp649
S'kristian_thules'
p650
aI64
aF0.0
aI293
aa(lp651
S'bende_bendts'
p652
aI34
aF0.0
aI133
aa(lp653
S's\xc3\xb8ren_pape'
p654
aI16
aF0.0
aI107
aa(lp655
S'joachim_b._olse'
p656
aI8
aF0.0
aI56
aa(lp657
S'ande_samuelse'
p658
aI38
aF0.0
aI160
aa(lp659
S'ing_st\xc3\xb8jberg'
p660
aI81
aF0.0
aI202
aa(lp661
S'lar_l\xc3\xb8kke'
p662
aI322
aF0.001
aI1081
aa(lp663
S'margrethe_vestage'
p664
aI107
aF0.0
aI497
aa(lp665
S'mort_\xc3\xb8stergaard'
p666
aI94
aF0.0
aI392
aa(lp667
S'helle_thorning'
p668
aI47
aF0.0
aI207
aa(lp669
S'thorning'
p670
aI98
aF0.0
aI387
aa(lp671
S'mette_frederiks'
p672
aI133
aF0.001
aI605
aa(lp673
S'uffe_elb\xc3\xa6k'
p674
aI19
aF0.0
aI119
aa(lp675
S'johanne_schmidt-nielse'
p676
aI130
aF0.001
aI449
aa(lp677
S'pet|peter_skaarup'
p678
aI84
aF0.0
aI207
aa(lp679
S'pia_kj\xc3\xa6rsgaard'
p680
aI100
aF0.001
aI285
aa(lp681
S'kristian_thules'
p682
aI64
aF0.0
aI293
aa(lp683
S'bende_bendts'
p684
aI34
aF0.0
aI133
aa(lp685
S's\xc3\xb8ren_pape'
p686
aI16
aF0.0
aI107
aa(lp687
S'joachim_b._olse'
p688
aI8
aF0.0
aI56
aa(lp689
S'ande_samuelse'
p690
aI38
aF0.0
aI160
aa(lp691
S'ing_st\xc3\xb8jberg'
p692
aI81
aF0.0
aI202
aa(lp693
S'lar_l\xc3\xb8kke'
p694
aI322
aF0.001
aI1081
aa(lp695
S'margrethe_vestage'
p696
aI107
aF0.0
aI497
aa(lp697
S'mort_\xc3\xb8stergaard'
p698
aI94
aF0.0
aI392
aa(lp699
S'helle_thorning'
p700
aI47
aF0.0
aI207
aa(lp701
S'thorning'
p702
aI98
aF0.0
aI387
aa(lp703
S'mette_frederiks'
p704
aI133
aF0.001
aI605
aa(lp705
S'uffe_elb\xc3\xa6k'
p706
aI19
aF0.0
aI119
aa(lp707
S'johanne_schmidt-nielse'
p708
aI130
aF0.001
aI449
aa.