(lp0
(lp1
S'udland.in_'
p2
aI5998
aI134481
aI914
aF0.848
aF5.387
aF6.235
aa(lp3
S'enhedsliste'
p4
aI33
aF0.0
aI60
aa(lp5
S'schmidt'
p6
aI2
aF0.0
aI16
aa(lp7
S'skippe'
p8
aI1
aF0.0
aI3
aa(lp9
S'folkeparti'
p10
aI66
aF0.0
aI128
aa(lp11
S'kj\xc3\xa6rsgaard'
p12
aI7
aF0.0
aI11
aa(lp13
S'skaarup'
p14
aI3
aF0.0
aI1
aa(lp15
S'udland.in_'
p16
aI5998
aI134481
aI914
aF0.863
aF5.353
aF6.216
aa(lp17
S'enhedsliste'
p18
aI33
aF0.0
aI60
aa(lp19
S'schmidt'
p20
aI2
aF0.0
aI16
aa(lp21
S'skippe'
p22
aI1
aF0.0
aI3
aa(lp23
S'folkeparti'
p24
aI66
aF0.0
aI128
aa(lp25
S'kj\xc3\xa6rsgaard'
p26
aI7
aF0.0
aI11
aa(lp27
S'skaarup'
p28
aI3
aF0.0
aI1
aa(lp29
S'udland.in_'
p30
aI5998
aI134481
aI914
aF0.85
aF5.219
aF6.069
aa(lp31
S'enhedsliste'
p32
aI33
aF0.0
aI60
aa(lp33
S'schmidt'
p34
aI2
aF0.0
aI16
aa(lp35
S'skippe'
p36
aI1
aF0.0
aI3
aa(lp37
S'folkeparti'
p38
aI66
aF0.0
aI128
aa(lp39
S'kj\xc3\xa6rsgaard'
p40
aI7
aF0.0
aI11
aa(lp41
S'skaarup'
p42
aI3
aF0.0
aI1
aa(lp43
S'udland.in_'
p44
aI5998
aI134481
aI914
aF0.833
aF5.119
aF5.953
aa(lp45
S'enhedsliste'
p46
aI33
aF0.0
aI60
aa(lp47
S'schmidt'
p48
aI2
aF0.0
aI16
aa(lp49
S'skippe'
p50
aI1
aF0.0
aI3
aa(lp51
S'folkeparti'
p52
aI66
aF0.0
aI128
aa(lp53
S'kj\xc3\xa6rsgaard'
p54
aI7
aF0.0
aI11
aa(lp55
S'skaarup'
p56
aI3
aF0.0
aI1
aa(lp57
S'udland.in_'
p58
aI5998
aI134481
aI914
aF0.823
aF5.277
aF6.1
aa(lp59
S'enhedsliste'
p60
aI33
aF0.0
aI60
aa(lp61
S'schmidt'
p62
aI2
aF0.0
aI16
aa(lp63
S'skippe'
p64
aI1
aF0.0
aI3
aa(lp65
S'folkeparti'
p66
aI66
aF0.0
aI128
aa(lp67
S'kj\xc3\xa6rsgaard'
p68
aI7
aF0.0
aI11
aa(lp69
S'skaarup'
p70
aI3
aF0.0
aI1
aa(lp71
S'udland.in_'
p72
aI5998
aI134481
aI914
aF0.85
aF5.355
aF6.206
aa(lp73
S'enhedsliste'
p74
aI33
aF0.0
aI60
aa(lp75
S'schmidt'
p76
aI2
aF0.0
aI16
aa(lp77
S'skippe'
p78
aI1
aF0.0
aI3
aa(lp79
S'folkeparti'
p80
aI66
aF0.0
aI128
aa(lp81
S'kj\xc3\xa6rsgaard'
p82
aI7
aF0.0
aI11
aa(lp83
S'skaarup'
p84
aI3
aF0.0
aI1
aa(lp85
S'udland.in_'
p86
aI5998
aI134481
aI914
aF1.011
aF5.461
aF6.473
aa(lp87
S'enhedsliste'
p88
aI33
aF0.0
aI60
aa(lp89
S'schmidt'
p90
aI2
aF0.0
aI16
aa(lp91
S'skippe'
p92
aI1
aF0.0
aI3
aa(lp93
S'folkeparti'
p94
aI66
aF0.0
aI128
aa(lp95
S'kj\xc3\xa6rsgaard'
p96
aI7
aF0.0
aI11
aa(lp97
S'skaarup'
p98
aI3
aF0.0
aI1
aa(lp99
S'udland.in_'
p100
aI5998
aI134481
aI914
aF0.813
aF5.212
aF6.025
aa(lp101
S'enhedsliste'
p102
aI33
aF0.0
aI60
aa(lp103
S'schmidt'
p104
aI2
aF0.0
aI16
aa(lp105
S'skippe'
p106
aI1
aF0.0
aI3
aa(lp107
S'folkeparti'
p108
aI66
aF0.0
aI128
aa(lp109
S'kj\xc3\xa6rsgaard'
p110
aI7
aF0.0
aI11
aa(lp111
S'skaarup'
p112
aI3
aF0.0
aI1
aa(lp113
S'udland.in_'
p114
aI5998
aI134481
aI914
aF0.86
aF5.223
aF6.084
aa(lp115
S'enhedsliste'
p116
aI33
aF0.0
aI60
aa(lp117
S'schmidt'
p118
aI2
aF0.0
aI16
aa(lp119
S'skippe'
p120
aI1
aF0.0
aI3
aa(lp121
S'folkeparti'
p122
aI66
aF0.0
aI128
aa(lp123
S'kj\xc3\xa6rsgaard'
p124
aI7
aF0.0
aI11
aa(lp125
S'skaarup'
p126
aI3
aF0.0
aI1
aa(lp127
S'udland.in_'
p128
aI5998
aI134481
aI914
aF0.899
aF5.241
aF6.14
aa(lp129
S'enhedsliste'
p130
aI33
aF0.0
aI60
aa(lp131
S'schmidt'
p132
aI2
aF0.0
aI16
aa(lp133
S'skippe'
p134
aI1
aF0.0
aI3
aa(lp135
S'folkeparti'
p136
aI66
aF0.0
aI128
aa(lp137
S'kj\xc3\xa6rsgaard'
p138
aI7
aF0.0
aI11
aa(lp139
S'skaarup'
p140
aI3
aF0.0
aI1
aa(lp141
S'udland.in_'
p142
aI5998
aI134481
aI914
aF0.898
aF6.064
aF6.962
aa(lp143
S'enhedsliste'
p144
aI33
aF0.0
aI60
aa(lp145
S'schmidt'
p146
aI2
aF0.0
aI16
aa(lp147
S'skippe'
p148
aI1
aF0.0
aI3
aa(lp149
S'folkeparti'
p150
aI66
aF0.0
aI128
aa(lp151
S'kj\xc3\xa6rsgaard'
p152
aI7
aF0.0
aI11
aa(lp153
S'skaarup'
p154
aI3
aF0.0
aI1
aa(lp155
S'udland.in_'
p156
aI5998
aI134481
aI914
aF0.91
aF5.939
aF6.85
aa(lp157
S'enhedsliste'
p158
aI33
aF0.0
aI60
aa(lp159
S'schmidt'
p160
aI2
aF0.0
aI16
aa(lp161
S'skippe'
p162
aI1
aF0.0
aI3
aa(lp163
S'folkeparti'
p164
aI66
aF0.0
aI128
aa(lp165
S'kj\xc3\xa6rsgaard'
p166
aI7
aF0.0
aI11
aa(lp167
S'skaarup'
p168
aI3
aF0.0
aI1
aa(lp169
S'udland.in_'
p170
aI5998
aI134481
aI914
aF0.905
aF5.837
aF6.742
aa(lp171
S'enhedsliste'
p172
aI33
aF0.0
aI60
aa(lp173
S'schmidt'
p174
aI2
aF0.0
aI16
aa(lp175
S'skippe'
p176
aI1
aF0.0
aI3
aa(lp177
S'folkeparti'
p178
aI66
aF0.0
aI128
aa(lp179
S'kj\xc3\xa6rsgaard'
p180
aI7
aF0.0
aI11
aa(lp181
S'skaarup'
p182
aI3
aF0.0
aI1
aa(lp183
S'udland.in_'
p184
aI5998
aI134481
aI914
aF0.913
aF5.925
aF6.838
aa(lp185
S'enhedsliste'
p186
aI33
aF0.0
aI60
aa(lp187
S'schmidt'
p188
aI2
aF0.0
aI16
aa(lp189
S'skippe'
p190
aI1
aF0.0
aI3
aa(lp191
S'folkeparti'
p192
aI66
aF0.0
aI128
aa(lp193
S'kj\xc3\xa6rsgaard'
p194
aI7
aF0.0
aI11
aa(lp195
S'skaarup'
p196
aI3
aF0.0
aI1
aa(lp197
S'udland.in_'
p198
aI5998
aI134481
aI914
aF0.883
aF5.853
aF6.736
aa(lp199
S'enhedsliste'
p200
aI33
aF0.0
aI60
aa(lp201
S'schmidt'
p202
aI2
aF0.0
aI16
aa(lp203
S'skippe'
p204
aI1
aF0.0
aI3
aa(lp205
S'folkeparti'
p206
aI66
aF0.0
aI128
aa(lp207
S'kj\xc3\xa6rsgaard'
p208
aI7
aF0.0
aI11
aa(lp209
S'skaarup'
p210
aI3
aF0.0
aI1
aa(lp211
S'udland.in_'
p212
aI5998
aI134481
aI914
aF0.882
aF5.805
aF6.687
aa(lp213
S'enhedsliste'
p214
aI33
aF0.0
aI60
aa(lp215
S'schmidt'
p216
aI2
aF0.0
aI16
aa(lp217
S'skippe'
p218
aI1
aF0.0
aI3
aa(lp219
S'folkeparti'
p220
aI66
aF0.0
aI128
aa(lp221
S'kj\xc3\xa6rsgaard'
p222
aI7
aF0.0
aI11
aa(lp223
S'skaarup'
p224
aI3
aF0.0
aI1
aa(lp225
S'udland.in_'
p226
aI5998
aI134481
aI914
aF0.872
aF6.271
aF7.144
aa(lp227
S'enhedsliste'
p228
aI33
aF0.0
aI60
aa(lp229
S'schmidt'
p230
aI2
aF0.0
aI16
aa(lp231
S'skippe'
p232
aI1
aF0.0
aI3
aa(lp233
S'folkeparti'
p234
aI66
aF0.0
aI128
aa(lp235
S'kj\xc3\xa6rsgaard'
p236
aI7
aF0.0
aI11
aa(lp237
S'skaarup'
p238
aI3
aF0.0
aI1
aa(lp239
S'udland.in_'
p240
aI5998
aI134481
aI914
aF0.897
aF5.801
aF6.699
aa(lp241
S'enhedsliste'
p242
aI33
aF0.0
aI60
aa(lp243
S'schmidt'
p244
aI2
aF0.0
aI16
aa(lp245
S'skippe'
p246
aI1
aF0.0
aI3
aa(lp247
S'folkeparti'
p248
aI66
aF0.0
aI128
aa(lp249
S'kj\xc3\xa6rsgaard'
p250
aI7
aF0.0
aI11
aa(lp251
S'skaarup'
p252
aI3
aF0.0
aI1
aa(lp253
S'udland.in_'
p254
aI5998
aI134481
aI914
aF0.927
aF5.792
aF6.719
aa(lp255
S'enhedsliste'
p256
aI33
aF0.0
aI60
aa(lp257
S'schmidt'
p258
aI2
aF0.0
aI16
aa(lp259
S'skippe'
p260
aI1
aF0.0
aI3
aa(lp261
S'folkeparti'
p262
aI66
aF0.001
aI128
aa(lp263
S'kj\xc3\xa6rsgaard'
p264
aI7
aF0.0
aI11
aa(lp265
S'skaarup'
p266
aI3
aF0.0
aI1
aa(lp267
S'udland.in_'
p268
aI5998
aI134481
aI914
aF5.658
aF5.998
aF11.669
aa(lp269
S'enhedsliste'
p270
aI33
aF0.003
aI60
aa(lp271
S'schmidt'
p272
aI2
aF0.0
aI16
aa(lp273
S'skippe'
p274
aI1
aF0.0
aI3
aa(lp275
S'folkeparti'
p276
aI66
aF0.0
aI128
aa(lp277
S'kj\xc3\xa6rsgaard'
p278
aI7
aF0.0
aI11
aa(lp279
S'skaarup'
p280
aI3
aF0.0
aI1
aa(lp281
S'udland.in_'
p282
aI5998
aI134481
aI914
aF5.574
aF5.821
aF11.395
aa(lp283
S'enhedsliste'
p284
aI33
aF0.04
aI60
aa(lp285
S'schmidt'
p286
aI2
aF0.0
aI16
aa(lp287
S'skippe'
p288
aI1
aF0.0
aI3
aa(lp289
S'folkeparti'
p290
aI66
aF0.0
aI128
aa(lp291
S'kj\xc3\xa6rsgaard'
p292
aI7
aF0.0
aI11
aa(lp293
S'skaarup'
p294
aI3
aF0.0
aI1
aa(lp295
S'udland.in_'
p296
aI5998
aI134481
aI914
aF4.703
aF6.217
aF10.933
aa(lp297
S'enhedsliste'
p298
aI33
aF0.463
aI60
aa(lp299
S'schmidt'
p300
aI2
aF0.0
aI16
aa(lp301
S'skippe'
p302
aI1
aF0.0
aI3
aa(lp303
S'folkeparti'
p304
aI66
aF0.0
aI128
aa(lp305
S'kj\xc3\xa6rsgaard'
p306
aI7
aF0.0
aI11
aa(lp307
S'skaarup'
p308
aI3
aF0.0
aI1
aa(lp309
S'udland.in_'
p310
aI5998
aI134481
aI914
aF40.363
aF5.868
aF46.42
aa(lp311
S'enhedsliste'
p312
aI33
aF0.057
aI60
aa(lp313
S'schmidt'
p314
aI2
aF0.0
aI16
aa(lp315
S'skippe'
p316
aI1
aF0.0
aI3
aa(lp317
S'folkeparti'
p318
aI66
aF0.0
aI128
aa(lp319
S'kj\xc3\xa6rsgaard'
p320
aI7
aF0.0
aI11
aa(lp321
S'skaarup'
p322
aI3
aF0.0
aI1
aa(lp323
S'udland.in_'
p324
aI5998
aI134481
aI914
aF3.962
aF6.003
aF9.965
aa(lp325
S'enhedsliste'
p326
aI33
aF0.0
aI60
aa(lp327
S'schmidt'
p328
aI2
aF0.0
aI16
aa(lp329
S'skippe'
p330
aI1
aF0.0
aI3
aa(lp331
S'folkeparti'
p332
aI66
aF0.0
aI128
aa(lp333
S'kj\xc3\xa6rsgaard'
p334
aI7
aF0.0
aI11
aa(lp335
S'skaarup'
p336
aI3
aF0.0
aI1
aa(lp337
S'udland.in_'
p338
aI5998
aI134481
aI914
aF3.793
aF6.714
aF10.613
aa(lp339
S'enhedsliste'
p340
aI33
aF0.062
aI60
aa(lp341
S'schmidt'
p342
aI2
aF0.0
aI16
aa(lp343
S'skippe'
p344
aI1
aF0.0
aI3
aa(lp345
S'folkeparti'
p346
aI66
aF0.0
aI128
aa(lp347
S'kj\xc3\xa6rsgaard'
p348
aI7
aF0.0
aI11
aa(lp349
S'skaarup'
p350
aI3
aF0.0
aI1
aa(lp351
S'udland.in_'
p352
aI5998
aI134481
aI914
aF4.559
aF5.996
aF10.555
aa(lp353
S'enhedsliste'
p354
aI33
aF0.048
aI60
aa(lp355
S'schmidt'
p356
aI2
aF0.0
aI16
aa(lp357
S'skippe'
p358
aI1
aF0.0
aI3
aa(lp359
S'folkeparti'
p360
aI66
aF0.0
aI128
aa(lp361
S'kj\xc3\xa6rsgaard'
p362
aI7
aF0.0
aI11
aa(lp363
S'skaarup'
p364
aI3
aF0.0
aI1
aa(lp365
S'udland.in_'
p366
aI5998
aI134481
aI914
aF6.916
aF6.018
aF12.957
aa(lp367
S'enhedsliste'
p368
aI33
aF0.446
aI60
aa(lp369
S'schmidt'
p370
aI2
aF0.0
aI16
aa(lp371
S'skippe'
p372
aI1
aF0.0
aI3
aa(lp373
S'folkeparti'
p374
aI66
aF0.0
aI128
aa(lp375
S'kj\xc3\xa6rsgaard'
p376
aI7
aF0.0
aI11
aa(lp377
S'skaarup'
p378
aI3
aF0.0
aI1
aa(lp379
S'udland.in_'
p380
aI5998
aI134481
aI914
aF4.96
aF5.758
aF10.718
aa(lp381
S'enhedsliste'
p382
aI33
aF0.346
aI60
aa(lp383
S'schmidt'
p384
aI2
aF0.0
aI16
aa(lp385
S'skippe'
p386
aI1
aF0.0
aI3
aa(lp387
S'folkeparti'
p388
aI66
aF0.034
aI128
aa(lp389
S'kj\xc3\xa6rsgaard'
p390
aI7
aF0.0
aI11
aa(lp391
S'skaarup'
p392
aI3
aF0.0
aI1
aa(lp393
S'udland.in_'
p394
aI5998
aI134481
aI914
aF5.408
aF6.099
aF11.526
aa(lp395
S'enhedsliste'
p396
aI33
aF0.083
aI60
aa(lp397
S'schmidt'
p398
aI2
aF0.0
aI16
aa(lp399
S'skippe'
p400
aI1
aF0.0
aI3
aa(lp401
S'folkeparti'
p402
aI66
aF0.0
aI128
aa(lp403
S'kj\xc3\xa6rsgaard'
p404
aI7
aF0.0
aI11
aa(lp405
S'skaarup'
p406
aI3
aF0.0
aI1
aa(lp407
S'udland.in_'
p408
aI5998
aI134481
aI914
aF15.485
aF5.925
aF21.63
aa(lp409
S'enhedsliste'
p410
aI33
aF0.246
aI60
aa(lp411
S'schmidt'
p412
aI2
aF0.0
aI16
aa(lp413
S'skippe'
p414
aI1
aF0.0
aI3
aa(lp415
S'folkeparti'
p416
aI66
aF0.137
aI128
aa(lp417
S'kj\xc3\xa6rsgaard'
p418
aI7
aF0.0
aI11
aa(lp419
S'skaarup'
p420
aI3
aF0.0
aI1
aa(lp421
S'udland.in_'
p422
aI5998
aI134481
aI914
aF5.962
aF6.031
aF11.993
aa(lp423
S'enhedsliste'
p424
aI33
aF0.0
aI60
aa(lp425
S'schmidt'
p426
aI2
aF0.0
aI16
aa(lp427
S'skippe'
p428
aI1
aF0.0
aI3
aa(lp429
S'folkeparti'
p430
aI66
aF0.0
aI128
aa(lp431
S'kj\xc3\xa6rsgaard'
p432
aI7
aF0.0
aI11
aa(lp433
S'skaarup'
p434
aI3
aF0.0
aI1
aa(lp435
S'udland.in_'
p436
aI5998
aI134481
aI914
aF0.917
aF6.113
aF7.03
aa(lp437
S'enhedsliste'
p438
aI33
aF0.0
aI60
aa(lp439
S'schmidt'
p440
aI2
aF0.0
aI16
aa(lp441
S'skippe'
p442
aI1
aF0.0
aI3
aa(lp443
S'folkeparti'
p444
aI66
aF0.0
aI128
aa(lp445
S'kj\xc3\xa6rsgaard'
p446
aI7
aF0.0
aI11
aa(lp447
S'skaarup'
p448
aI3
aF0.0
aI1
aa(lp449
S'udland.in_'
p450
aI5998
aI134481
aI914
aF0.906
aF5.924
aF6.83
aa(lp451
S'enhedsliste'
p452
aI33
aF0.0
aI60
aa(lp453
S'schmidt'
p454
aI2
aF0.0
aI16
aa(lp455
S'skippe'
p456
aI1
aF0.0
aI3
aa(lp457
S'folkeparti'
p458
aI66
aF0.0
aI128
aa(lp459
S'kj\xc3\xa6rsgaard'
p460
aI7
aF0.0
aI11
aa(lp461
S'skaarup'
p462
aI3
aF0.0
aI1
aa(lp463
S'udland.in_'
p464
aI5998
aI134481
aI914
aF0.911
aF5.916
aF6.828
aa(lp465
S'enhedsliste'
p466
aI33
aF0.0
aI60
aa(lp467
S'schmidt'
p468
aI2
aF0.0
aI16
aa(lp469
S'skippe'
p470
aI1
aF0.0
aI3
aa(lp471
S'folkeparti'
p472
aI66
aF0.0
aI128
aa(lp473
S'kj\xc3\xa6rsgaard'
p474
aI7
aF0.0
aI11
aa(lp475
S'skaarup'
p476
aI3
aF0.0
aI1
aa(lp477
S'udland.in_'
p478
aI5998
aI134481
aI914
aF1.07
aF5.732
aF6.803
aa(lp479
S'enhedsliste'
p480
aI33
aF0.0
aI60
aa(lp481
S'schmidt'
p482
aI2
aF0.0
aI16
aa(lp483
S'skippe'
p484
aI1
aF0.0
aI3
aa(lp485
S'folkeparti'
p486
aI66
aF0.0
aI128
aa(lp487
S'kj\xc3\xa6rsgaard'
p488
aI7
aF0.0
aI11
aa(lp489
S'skaarup'
p490
aI3
aF0.0
aI1
aa(lp491
S'udland.in_'
p492
aI5998
aI134481
aI914
aF0.879
aF6.067
aF6.946
aa(lp493
S'enhedsliste'
p494
aI33
aF0.0
aI60
aa(lp495
S'schmidt'
p496
aI2
aF0.0
aI16
aa(lp497
S'skippe'
p498
aI1
aF0.0
aI3
aa(lp499
S'folkeparti'
p500
aI66
aF0.0
aI128
aa(lp501
S'kj\xc3\xa6rsgaard'
p502
aI7
aF0.0
aI11
aa(lp503
S'skaarup'
p504
aI3
aF0.0
aI1
aa(lp505
S'udland.in_'
p506
aI5998
aI134481
aI914
aF0.881
aF5.726
aF6.607
aa(lp507
S'enhedsliste'
p508
aI33
aF0.0
aI60
aa(lp509
S'schmidt'
p510
aI2
aF0.0
aI16
aa(lp511
S'skippe'
p512
aI1
aF0.0
aI3
aa(lp513
S'folkeparti'
p514
aI66
aF0.0
aI128
aa(lp515
S'kj\xc3\xa6rsgaard'
p516
aI7
aF0.0
aI11
aa(lp517
S'skaarup'
p518
aI3
aF0.0
aI1
aa(lp519
S'udland.in_'
p520
aI5998
aI134481
aI914
aF2.059
aF5.648
aF7.707
aa(lp521
S'enhedsliste'
p522
aI33
aF0.0
aI60
aa(lp523
S'schmidt'
p524
aI2
aF0.0
aI16
aa(lp525
S'skippe'
p526
aI1
aF0.0
aI3
aa(lp527
S'folkeparti'
p528
aI66
aF0.0
aI128
aa(lp529
S'kj\xc3\xa6rsgaard'
p530
aI7
aF0.0
aI11
aa(lp531
S'skaarup'
p532
aI3
aF0.0
aI1
aa(lp533
S'udland.in_'
p534
aI5998
aI134481
aI914
aF0.87
aF5.781
aF6.652
aa(lp535
S'enhedsliste'
p536
aI33
aF0.0
aI60
aa(lp537
S'schmidt'
p538
aI2
aF0.0
aI16
aa(lp539
S'skippe'
p540
aI1
aF0.0
aI3
aa(lp541
S'folkeparti'
p542
aI66
aF0.0
aI128
aa(lp543
S'kj\xc3\xa6rsgaard'
p544
aI7
aF0.0
aI11
aa(lp545
S'skaarup'
p546
aI3
aF0.0
aI1
aa(lp547
S'udland.in_'
p548
aI5998
aI134481
aI914
aF0.878
aF5.434
aF6.312
aa(lp549
S'enhedsliste'
p550
aI33
aF0.0
aI60
aa(lp551
S'schmidt'
p552
aI2
aF0.0
aI16
aa(lp553
S'skippe'
p554
aI1
aF0.0
aI3
aa(lp555
S'folkeparti'
p556
aI66
aF0.0
aI128
aa(lp557
S'kj\xc3\xa6rsgaard'
p558
aI7
aF0.0
aI11
aa(lp559
S'skaarup'
p560
aI3
aF0.0
aI1
aa(lp561
S'udland.in_'
p562
aI5998
aI134481
aI914
aF0.857
aF5.319
aF6.176
aa(lp563
S'enhedsliste'
p564
aI33
aF0.0
aI60
aa(lp565
S'schmidt'
p566
aI2
aF0.0
aI16
aa(lp567
S'skippe'
p568
aI1
aF0.0
aI3
aa(lp569
S'folkeparti'
p570
aI66
aF0.0
aI128
aa(lp571
S'kj\xc3\xa6rsgaard'
p572
aI7
aF0.0
aI11
aa(lp573
S'skaarup'
p574
aI3
aF0.0
aI1
aa(lp575
S'udland.in_'
p576
aI5998
aI134481
aI914
aF0.917
aF5.344
aF6.261
aa(lp577
S'enhedsliste'
p578
aI33
aF0.0
aI60
aa(lp579
S'schmidt'
p580
aI2
aF0.0
aI16
aa(lp581
S'skippe'
p582
aI1
aF0.0
aI3
aa(lp583
S'folkeparti'
p584
aI66
aF0.0
aI128
aa(lp585
S'kj\xc3\xa6rsgaard'
p586
aI7
aF0.0
aI11
aa(lp587
S'skaarup'
p588
aI3
aF0.0
aI1
aa(lp589
S'udland.in_'
p590
aI5998
aI134481
aI914
aF0.915
aF5.678
aF6.594
aa(lp591
S'enhedsliste'
p592
aI33
aF0.0
aI60
aa(lp593
S'schmidt'
p594
aI2
aF0.0
aI16
aa(lp595
S'skippe'
p596
aI1
aF0.0
aI3
aa(lp597
S'folkeparti'
p598
aI66
aF0.0
aI128
aa(lp599
S'kj\xc3\xa6rsgaard'
p600
aI7
aF0.0
aI11
aa(lp601
S'skaarup'
p602
aI3
aF0.0
aI1
aa(lp603
S'udland.in_'
p604
aI5998
aI134481
aI914
aF0.849
aF5.415
aF6.264
aa(lp605
S'enhedsliste'
p606
aI33
aF0.0
aI60
aa(lp607
S'schmidt'
p608
aI2
aF0.0
aI16
aa(lp609
S'skippe'
p610
aI1
aF0.0
aI3
aa(lp611
S'folkeparti'
p612
aI66
aF0.0
aI128
aa(lp613
S'kj\xc3\xa6rsgaard'
p614
aI7
aF0.0
aI11
aa(lp615
S'skaarup'
p616
aI3
aF0.0
aI1
aa(lp617
S'udland.in_'
p618
aI5998
aI134481
aI914
aF0.833
aF5.345
aF6.178
aa(lp619
S'enhedsliste'
p620
aI33
aF0.0
aI60
aa(lp621
S'schmidt'
p622
aI2
aF0.0
aI16
aa(lp623
S'skippe'
p624
aI1
aF0.0
aI3
aa(lp625
S'folkeparti'
p626
aI66
aF0.0
aI128
aa(lp627
S'kj\xc3\xa6rsgaard'
p628
aI7
aF0.0
aI11
aa(lp629
S'skaarup'
p630
aI3
aF0.0
aI1
aa(lp631
S'udland.in_'
p632
aI5998
aI134481
aI914
aF1.037
aF5.318
aF6.354
aa(lp633
S'enhedsliste'
p634
aI33
aF0.0
aI60
aa(lp635
S'schmidt'
p636
aI2
aF0.0
aI16
aa(lp637
S'skippe'
p638
aI1
aF0.0
aI3
aa(lp639
S'folkeparti'
p640
aI66
aF0.0
aI128
aa(lp641
S'kj\xc3\xa6rsgaard'
p642
aI7
aF0.0
aI11
aa(lp643
S'skaarup'
p644
aI3
aF0.0
aI1
aa(lp645
S'udland.in_'
p646
aI5998
aI134481
aI914
aF0.885
aF5.275
aF6.161
aa(lp647
S'enhedsliste'
p648
aI33
aF0.0
aI60
aa(lp649
S'schmidt'
p650
aI2
aF0.0
aI16
aa(lp651
S'skippe'
p652
aI1
aF0.0
aI3
aa(lp653
S'folkeparti'
p654
aI66
aF0.001
aI128
aa(lp655
S'kj\xc3\xa6rsgaard'
p656
aI7
aF0.0
aI11
aa(lp657
S'skaarup'
p658
aI3
aF0.0
aI1
aa(lp659
S'udland.in_'
p660
aI5998
aI134481
aI914
aF0.854
aF5.393
aF6.247
aa(lp661
S'enhedsliste'
p662
aI33
aF0.0
aI60
aa(lp663
S'schmidt'
p664
aI2
aF0.0
aI16
aa(lp665
S'skippe'
p666
aI1
aF0.0
aI3
aa(lp667
S'folkeparti'
p668
aI66
aF0.0
aI128
aa(lp669
S'kj\xc3\xa6rsgaard'
p670
aI7
aF0.0
aI11
aa(lp671
S'skaarup'
p672
aI3
aF0.0
aI1
aa(lp673
S'udland.in_'
p674
aI5998
aI134481
aI914
aF0.848
aF5.331
aF6.179
aa(lp675
S'enhedsliste'
p676
aI33
aF0.0
aI60
aa(lp677
S'schmidt'
p678
aI2
aF0.0
aI16
aa(lp679
S'skippe'
p680
aI1
aF0.0
aI3
aa(lp681
S'folkeparti'
p682
aI66
aF0.0
aI128
aa(lp683
S'kj\xc3\xa6rsgaard'
p684
aI7
aF0.0
aI11
aa(lp685
S'skaarup'
p686
aI3
aF0.0
aI1
aa(lp687
S'udland.in_'
p688
aI5998
aI134481
aI914
aF5.382
aF5.367
aF10.758
aa(lp689
S'enhedsliste'
p690
aI33
aF0.049
aI60
aa(lp691
S'schmidt'
p692
aI2
aF0.0
aI16
aa(lp693
S'skippe'
p694
aI1
aF0.0
aI3
aa(lp695
S'folkeparti'
p696
aI66
aF0.001
aI128
aa(lp697
S'kj\xc3\xa6rsgaard'
p698
aI7
aF0.0
aI11
aa(lp699
S'skaarup'
p700
aI3
aF0.0
aI1
aa(lp701
S'udland.in_'
p702
aI5998
aI134481
aI914
aF1.114
aF6.732
aF7.846
aa(lp703
S'enhedsliste'
p704
aI33
aF0.001
aI60
aa(lp705
S'schmidt'
p706
aI2
aF0.0
aI16
aa(lp707
S'skippe'
p708
aI1
aF0.0
aI3
aa(lp709
S'folkeparti'
p710
aI66
aF0.0
aI128
aa(lp711
S'kj\xc3\xa6rsgaard'
p712
aI7
aF0.0
aI11
aa(lp713
S'skaarup'
p714
aI3
aF0.0
aI1
aa(lp715
S'udland.in_'
p716
aI5998
aI134481
aI914
aF5.639
aF10.276
aF15.915
aa(lp717
S'enhedsliste'
p718
aI33
aF0.001
aI60
aa(lp719
S'schmidt'
p720
aI2
aF0.0
aI16
aa(lp721
S'skippe'
p722
aI1
aF0.0
aI3
aa(lp723
S'folkeparti'
p724
aI66
aF0.0
aI128
aa(lp725
S'kj\xc3\xa6rsgaard'
p726
aI7
aF0.0
aI11
aa(lp727
S'skaarup'
p728
aI3
aF0.0
aI1
aa(lp729
S'udland.in_'
p730
aI5998
aI134481
aI914
aF6.786
aF7.528
aF14.314
aa(lp731
S'enhedsliste'
p732
aI33
aF0.0
aI60
aa(lp733
S'schmidt'
p734
aI2
aF0.0
aI16
aa(lp735
S'skippe'
p736
aI1
aF0.0
aI3
aa(lp737
S'folkeparti'
p738
aI66
aF0.0
aI128
aa(lp739
S'kj\xc3\xa6rsgaard'
p740
aI7
aF0.0
aI11
aa(lp741
S'skaarup'
p742
aI3
aF0.0
aI1
aa(lp743
S'udland.in_'
p744
aI5998
aI134481
aI914
aF196.714
aF26.209
aF226.034
aa(lp745
S'enhedsliste'
p746
aI33
aF0.458
aI60
aa(lp747
S'schmidt'
p748
aI2
aF0.0
aI16
aa(lp749
S'skippe'
p750
aI1
aF0.0
aI3
aa(lp751
S'folkeparti'
p752
aI66
aF0.0
aI128
aa(lp753
S'kj\xc3\xa6rsgaard'
p754
aI7
aF0.0
aI11
aa(lp755
S'skaarup'
p756
aI3
aF0.0
aI1
aa(lp757
S'udland.in_'
p758
aI5998
aI134481
aI914
aF1.979
aF5.097
aF7.076
aa(lp759
S'enhedsliste'
p760
aI33
aF0.0
aI60
aa(lp761
S'schmidt'
p762
aI2
aF0.0
aI16
aa(lp763
S'skippe'
p764
aI1
aF0.0
aI3
aa(lp765
S'folkeparti'
p766
aI66
aF0.0
aI128
aa(lp767
S'kj\xc3\xa6rsgaard'
p768
aI7
aF0.0
aI11
aa(lp769
S'skaarup'
p770
aI3
aF0.0
aI1
aa(lp771
S'udland.in_'
p772
aI5998
aI134481
aI914
aF0.811
aF5.126
aF5.937
aa(lp773
S'enhedsliste'
p774
aI33
aF0.0
aI60
aa(lp775
S'schmidt'
p776
aI2
aF0.0
aI16
aa(lp777
S'skippe'
p778
aI1
aF0.0
aI3
aa(lp779
S'folkeparti'
p780
aI66
aF0.001
aI128
aa(lp781
S'kj\xc3\xa6rsgaard'
p782
aI7
aF0.0
aI11
aa(lp783
S'skaarup'
p784
aI3
aF0.0
aI1
aa(lp785
S'udland.in_'
p786
aI5998
aI134481
aI914
aF0.812
aF5.232
aF6.044
aa(lp787
S'enhedsliste'
p788
aI33
aF0.0
aI60
aa(lp789
S'schmidt'
p790
aI2
aF0.0
aI16
aa(lp791
S'skippe'
p792
aI1
aF0.0
aI3
aa(lp793
S'folkeparti'
p794
aI66
aF0.0
aI128
aa(lp795
S'kj\xc3\xa6rsgaard'
p796
aI7
aF0.0
aI11
aa(lp797
S'skaarup'
p798
aI3
aF0.0
aI1
aa(lp799
S'udland.in_'
p800
aI5998
aI134481
aI914
aF0.818
aF5.08
aF5.898
aa(lp801
S'enhedsliste'
p802
aI33
aF0.0
aI60
aa(lp803
S'schmidt'
p804
aI2
aF0.0
aI16
aa(lp805
S'skippe'
p806
aI1
aF0.0
aI3
aa(lp807
S'folkeparti'
p808
aI66
aF0.0
aI128
aa(lp809
S'kj\xc3\xa6rsgaard'
p810
aI7
aF0.0
aI11
aa(lp811
S'skaarup'
p812
aI3
aF0.0
aI1
aa(lp813
S'udland.in_'
p814
aI5998
aI134481
aI914
aF0.841
aF5.094
aF5.936
aa(lp815
S'enhedsliste'
p816
aI33
aF0.0
aI60
aa(lp817
S'schmidt'
p818
aI2
aF0.0
aI16
aa(lp819
S'skippe'
p820
aI1
aF0.0
aI3
aa(lp821
S'folkeparti'
p822
aI66
aF0.0
aI128
aa(lp823
S'kj\xc3\xa6rsgaard'
p824
aI7
aF0.0
aI11
aa(lp825
S'skaarup'
p826
aI3
aF0.0
aI1
aa(lp827
S'udland.in_'
p828
aI5998
aI134481
aI914
aF3.003
aF5.66
aF8.663
aa(lp829
S'enhedsliste'
p830
aI33
aF0.0
aI60
aa(lp831
S'schmidt'
p832
aI2
aF0.0
aI16
aa(lp833
S'skippe'
p834
aI1
aF0.0
aI3
aa(lp835
S'folkeparti'
p836
aI66
aF0.0
aI128
aa(lp837
S'kj\xc3\xa6rsgaard'
p838
aI7
aF0.0
aI11
aa(lp839
S'skaarup'
p840
aI3
aF0.0
aI1
aa(lp841
S'udland.in_'
p842
aI5998
aI134481
aI914
aF0.827
aF5.462
aF6.289
aa(lp843
S'enhedsliste'
p844
aI33
aF0.0
aI60
aa(lp845
S'schmidt'
p846
aI2
aF0.0
aI16
aa(lp847
S'skippe'
p848
aI1
aF0.0
aI3
aa(lp849
S'folkeparti'
p850
aI66
aF0.0
aI128
aa(lp851
S'kj\xc3\xa6rsgaard'
p852
aI7
aF0.0
aI11
aa(lp853
S'skaarup'
p854
aI3
aF0.0
aI1
aa(lp855
S'udland.in_'
p856
aI5998
aI134481
aI914
aF0.86
aF5.479
aF6.339
aa(lp857
S'enhedsliste'
p858
aI33
aF0.0
aI60
aa(lp859
S'schmidt'
p860
aI2
aF0.0
aI16
aa(lp861
S'skippe'
p862
aI1
aF0.0
aI3
aa(lp863
S'folkeparti'
p864
aI66
aF0.0
aI128
aa(lp865
S'kj\xc3\xa6rsgaard'
p866
aI7
aF0.0
aI11
aa(lp867
S'skaarup'
p868
aI3
aF0.0
aI1
aa(lp869
S'udland.in_'
p870
aI5998
aI134481
aI914
aF0.839
aF5.246
aF6.085
aa(lp871
S'enhedsliste'
p872
aI33
aF0.0
aI60
aa(lp873
S'schmidt'
p874
aI2
aF0.0
aI16
aa(lp875
S'skippe'
p876
aI1
aF0.0
aI3
aa(lp877
S'folkeparti'
p878
aI66
aF0.0
aI128
aa(lp879
S'kj\xc3\xa6rsgaard'
p880
aI7
aF0.0
aI11
aa(lp881
S'skaarup'
p882
aI3
aF0.0
aI1
aa(lp883
S'udland.in_'
p884
aI5998
aI134481
aI914
aF0.879
aF5.348
aF6.228
aa(lp885
S'enhedsliste'
p886
aI33
aF0.0
aI60
aa(lp887
S'schmidt'
p888
aI2
aF0.0
aI16
aa(lp889
S'skippe'
p890
aI1
aF0.0
aI3
aa(lp891
S'folkeparti'
p892
aI66
aF0.0
aI128
aa(lp893
S'kj\xc3\xa6rsgaard'
p894
aI7
aF0.0
aI11
aa(lp895
S'skaarup'
p896
aI3
aF0.0
aI1
aa(lp897
S'udland.in_'
p898
aI5998
aI134481
aI914
aF0.834
aF5.711
aF6.545
aa(lp899
S'enhedsliste'
p900
aI33
aF0.0
aI60
aa(lp901
S'schmidt'
p902
aI2
aF0.0
aI16
aa(lp903
S'skippe'
p904
aI1
aF0.0
aI3
aa(lp905
S'folkeparti'
p906
aI66
aF0.0
aI128
aa(lp907
S'kj\xc3\xa6rsgaard'
p908
aI7
aF0.0
aI11
aa(lp909
S'skaarup'
p910
aI3
aF0.0
aI1
aa(lp911
S'udland.in_'
p912
aI5998
aI134481
aI914
aF0.842
aF5.439
aF6.281
aa(lp913
S'enhedsliste'
p914
aI33
aF0.0
aI60
aa(lp915
S'schmidt'
p916
aI2
aF0.0
aI16
aa(lp917
S'skippe'
p918
aI1
aF0.0
aI3
aa(lp919
S'folkeparti'
p920
aI66
aF0.0
aI128
aa(lp921
S'kj\xc3\xa6rsgaard'
p922
aI7
aF0.0
aI11
aa(lp923
S'skaarup'
p924
aI3
aF0.0
aI1
aa(lp925
S'udland.in_'
p926
aI5998
aI134481
aI914
aF0.849
aF5.386
aF6.235
aa(lp927
S'enhedsliste'
p928
aI33
aF0.0
aI60
aa(lp929
S'schmidt'
p930
aI2
aF0.0
aI16
aa(lp931
S'skippe'
p932
aI1
aF0.0
aI3
aa(lp933
S'folkeparti'
p934
aI66
aF0.0
aI128
aa(lp935
S'kj\xc3\xa6rsgaard'
p936
aI7
aF0.0
aI11
aa(lp937
S'skaarup'
p938
aI3
aF0.0
aI1
aa(lp939
S'udland.in_'
p940
aI5998
aI134481
aI914
aF0.834
aF5.909
aF6.743
aa(lp941
S'enhedsliste'
p942
aI33
aF0.0
aI60
aa(lp943
S'schmidt'
p944
aI2
aF0.0
aI16
aa(lp945
S'skippe'
p946
aI1
aF0.0
aI3
aa(lp947
S'folkeparti'
p948
aI66
aF0.0
aI128
aa(lp949
S'kj\xc3\xa6rsgaard'
p950
aI7
aF0.0
aI11
aa(lp951
S'skaarup'
p952
aI3
aF0.0
aI1
aa(lp953
S'udland.in_'
p954
aI5998
aI134481
aI914
aF0.921
aF6.507
aF7.428
aa(lp955
S'enhedsliste'
p956
aI33
aF0.0
aI60
aa(lp957
S'schmidt'
p958
aI2
aF0.0
aI16
aa(lp959
S'skippe'
p960
aI1
aF0.0
aI3
aa(lp961
S'folkeparti'
p962
aI66
aF0.0
aI128
aa(lp963
S'kj\xc3\xa6rsgaard'
p964
aI7
aF0.0
aI11
aa(lp965
S'skaarup'
p966
aI3
aF0.0
aI1
aa(lp967
S'udland.in_'
p968
aI5998
aI134481
aI914
aF0.865
aF5.288
aF6.153
aa(lp969
S'enhedsliste'
p970
aI33
aF0.0
aI60
aa(lp971
S'schmidt'
p972
aI2
aF0.0
aI16
aa(lp973
S'skippe'
p974
aI1
aF0.0
aI3
aa(lp975
S'folkeparti'
p976
aI66
aF0.0
aI128
aa(lp977
S'kj\xc3\xa6rsgaard'
p978
aI7
aF0.0
aI11
aa(lp979
S'skaarup'
p980
aI3
aF0.0
aI1
aa.