(dp0
S'telegram200904afghan'
p1
(lp2
S'2009/04'
p3
aS'Afghanistan hovedemne p\xc3\xa5 topm\xc3\xb8de'
p4
aS''
p5
ag5
aS" En fremtidig strategi for NATO's indsats i Afghanistan var hovedemnet, da stats- og regeringscheferne i formiddags st\xc3\xa6rkt forsinket genoptog topm\xc3\xb8det i forsvarsalliancen.  USA har opfordret de allierede til at bidrage med mere i kampen mod Taliban og terrornetv\xc3\xa6rket al-Qaeda og sagt, at det er i europ\xc3\xa6ernes egen interesse. I f\xc3\xb8rste omgang skal alliancen enes om at sende yderligere 4000 soldater til pr\xc3\xa6sidentvalget i Afghanistan i august. USA's pr\xc3\xa6sident har fremlagt sin egen strategi, der satser p\xc3\xa5 regionalt samarbejde om Afghanistan og udviklingsprojekter. Det skal ske sidel\xc3\xb8bende med optrapning af den milit\xc3\xa6re indsats i Afghanistan. Men Obama understreger, at det er Nato, der st\xc3\xa5r med det store ansvar. - Dette er ikke en amerikansk mission, det er en Nato-mission, det er en international mission, sagde han i en tale i Strasbourg i g\xc3\xa5r.- Det er efter alt at d\xc3\xb8mme mere sandsynligt, at al-Qaeda vil v\xc3\xa6re i stand til iv\xc3\xa6rks\xc3\xa6tte et alvorligt terrorangreb i Europa end i USA, eftersom det liggere n\xc3\xa6rmere, sagde han.  Det var uvist, om de 28 stats- og regeringschefer ville genoptage fredag aftens fors\xc3\xb8g p\xc3\xa5 at udpege en kommende generalsekret\xc3\xa6r. Tyrkiets pr\xc3\xa6sident, Abdullah G\xc3\xbcl, lod forst\xc3\xa5, at hans land ikke er indforst\xc3\xa5et med at g\xc3\xb8re Anders Fogh Rasmussen til NATO's generalsekret\xc3\xa6r."
p6
asS'kultur201509easylist'
p7
(lp8
S'2015/09'
p9
aS'Easy listening om et sv\xc3\xa6rt emne'
p10
aS'Informations musikredakt\xc3\xb8r tog til koncert med Sufjan Stevens med sit eget tab i bagagen. Lige meget hjalp det. Stevens form\xc3\xa5ede nemlig heller ikke i koncertformat at forl\xc3\xb8se sin musikalske bearbejdelse af sorgen over sin mors d\xc3\xb8d'
p11
aS' Sufjan Stevens ved en koncert\xc2\xa0i Royal Festival Hall i\xc2\xa0London tidligere p\xc3\xa5 m\xc3\xa5neden.'
p12
aS' Det blev et eksperiment, der skuffede. Efter at have haft en noget lunken oplevelse med Sufjan Stevens\xe2\x80\x99 seneste album, Carrie & Lowell, besluttede denne anmelder sig for at give v\xc3\xa6rket endnu en chance ved den 40-\xc3\xa5rige amerikaners koncert i Falconer Salen p\xc3\xa5 Frederiksberg, mandag.Carrie & Lowell er Stevens\xe2\x80\x99 bearbejdelse af tabet af sin mor i 2012. En 11 numre lang sk\xc3\xb8nhedsdyrkende afsked med en kvinde, som han havde et meget besv\xc3\xa6ret forhold til. Ikke s\xc3\xa5 m\xc3\xa6rkeligt, da moderen Carrie forlod sin mand og deres fire b\xc3\xb8rn, da Sufjan var kun \xc3\xa9t \xc3\xa5r gammel. Lowell er navnet p\xc3\xa5 moderens efterf\xc3\xb8lgende \xc3\xa6gtemand, som insisterede p\xc3\xa5, at hun genoptog kontakt med sine b\xc3\xb8rn.Mit eksperiment var ikke kun professionelt, men ogs\xc3\xa5 personligt motiveret. Min far d\xc3\xb8de for lidt over to m\xc3\xa5neder siden. Vi havde heller ikke et nemt forhold. Hvem har det til sine for\xc3\xa6ldre? Men jeg elskede ham, ingen tvivl om d\xc3\xa9t. Og tanken var, at jeg nu ville bes\xc3\xb8ge Sufjan Stevens\xe2\x80\x99 sorgbearbejdelse fra et andet og m\xc3\xa5ske mere modtageligt sted. Denne gang som en efterladt selv.Men det virkede heller ikke. S\xc3\xa5 vidt jeg kunne opregne, s\xc3\xa5 fik vi i hoveds\xc3\xa6ttet alle 11 sange fra Carrie & Lowell iblandet to-tre sange fra andre plader, og desv\xc3\xa6rre fremstod f\xc3\xb8rstn\xc3\xa6vnte ikke mindre monokrome i koncertsituationen. Bevares, leveringen var fornemt koncentreret og indf\xc3\xb8lt, alle fire medmusikere spillede med kammermusikalsk akkuratesse og intimitet. Men sangene syntes \xe2\x80\x93 stort set \xe2\x80\x93 aldrig rigtig at forlade formen og tage bo i os. For velopdragne, m\xc3\xa5ske.Blegn\xc3\xa6bbetIf\xc3\xb8lge rockistisk biografistisk mytologi burde Carrie & Lowell v\xc3\xa6re Sufjan Stevens\xe2\x80\x99 bedste album. Fordi rockjournalister og -kritikere (ofte ogs\xc3\xa5 overtegnede) er suckers for den dybt emotionelle historie bag v\xc3\xa6rket og synes at sv\xc3\xa6rge til den fundamentale fejlslutning, at der ud af en dybf\xc3\xb8lt erfaring partout kommer dybf\xc3\xb8lt kunst. Det er der jo masser af eksempler. Men s\xc3\xa5dan g\xc3\xa5r det ikke hver gang.Koncerten i mandags forst\xc3\xa6rkede egentlig bare indtrykket af en kunstner eller m\xc3\xa5ske et menneske, som ikke kan beslutte sig for at besv\xc3\xa6re os med sin sorg eller ej. Mens albummet er et for forsigtigt og for dekorativt kunstv\xc3\xa6rk, s\xc3\xa5 er det imidlertid ogs\xc3\xa5 en r\xc3\xb8rende personlig dokumentation af et tab. Men foran et publikum med et band blev det aldrig til mere end fremf\xc3\xb8relsen af dette dokument, ikke til en be\xc3\xa5nding.Sangenes filigranmelodier og vokalharmonisk wellness virkede afg\xc3\xb8rende blegn\xc3\xa6bbede, tilbageholdende, generte. Ja, selv bandet \xe2\x80\x93 der til sidst skulle vise sig at v\xc3\xa6re formidabelt \xe2\x80\x93 syntes at holde igen og tr\xc3\xa6de med un\xc3\xb8dig varsomhed. Ofte fik man n\xc3\xa6sten fornemmelsen af en easy listening-fremf\xc3\xb8rsel af et tonse\xc2\xadsv\xc3\xa6rt emnemateriale. En fornemmelse, der blev forst\xc3\xa6rket af den naturidylliske screensaver-\xc3\xa6stetik, der viste sig i det ellers begavede trick med at lade syv aflange femkanter agere kirkelige vinduer ud til familiefotos, b\xc3\xb8lgende hav eller skyformationer i fastmotion p\xc3\xa5 bagt\xc3\xa6ppet.SorgStevens er langt bedre til at synge ud fra en ekstistentiel melankolsk position eller m\xc3\xa5ske bare med en st\xc3\xb8rre distance til sorgen. \xc2\xbbJohn Wayne Gacy, Jr.\xc2\xab fra hovedv\xc3\xa6rket (Come On Feel The) Illinoise, som han gav som et af ekstranumrene mandag aften, handler om seriemorderen af samme navn, og den former sig som en elegi over de myrdede drenge og m\xc3\xa6nd, men ogs\xc3\xa5 som en erkendelse af menneskets iboende ondskab.Og fra samme plade er der den formidable \xc2\xbbCasimir Pulaski Day\xc2\xab om en 12-\xc3\xa5rig veninde, der d\xc3\xb8r af knoglemarvscancer. Den kan f\xc3\xa5 mig til at tude n\xc3\xa5r som helst. Hvilket m\xc3\xa5ske er den eneste gode grund til, at den var frav\xc3\xa6rende ved mandagens koncert.\xc2\xbbCasimir Pulaski Day\xc2\xab kan s\xc3\xa5 ogs\xc3\xa5 f\xc3\xa5 et to\xc3\xa5rigt barn til at holde med at skrige og r\xc3\xa5be, kan jeg forst\xc3\xa5 fra en fars onlinefort\xc3\xa6lling. Og det er der m\xc3\xa5ske en pointe i. At andres sorg kan f\xc3\xa5 os til at holde k\xc3\xa6ft, holde op med at bekymre os om social positionering, erkende vores komfortable situation. Eller m\xc3\xa5ske bare f\xc3\xb8le vores egen sorg anerkendt, genkendt. Men sorgen skal sateme v\xc3\xa6re formidlet fra afsenders side. Eller leveret r\xc3\xa5t og blodigt ubearbejdet. Store \xc3\xa5bne s\xc3\xa5r. Enten-eller.For her er sorgen: En sort gr\xc3\xb8d af knytn\xc3\xa6ver inde bag ribbenene. En til tider rablende alternering mellem eufori og v\xc3\xa6mmelse over livet. En dump og stum ekspansion af uendelige tomrum p\xc3\xa5 de m\xc3\xa6rkv\xc3\xa6rdigste tidspunkter og de mest ubehagelige steder i kroppen. Kv\xc3\xa6lningsfornemmelser. M\xc3\xa5ll\xc3\xb8shed over at noget s\xc3\xa5 basalt og forudsigeligt kan komme bag p\xc3\xa5 en med s\xc3\xa5 stor v\xc3\xa6gt. Afmagt over ikke at kunne sp\xc3\xb8rge ham om noget l\xc3\xa6ngere. Hvorfor han drak s\xc3\xa5 meget, eller hvordan det var for ham at v\xc3\xa6re barn under bes\xc3\xa6ttelsen.Vellykket afslutningJeg befinder mig naturligvis et andet sted i sorgprocessen end aftenens h\xc3\xb8jt elskede midtpunkt. Sufjan Stevens begyndte at skrive sine sange omkring to \xc3\xa5r efter moderens d\xc3\xb8d, hvilket sikkert til dels kan forklare hans mere forsonlige og beherskede tilgang til sorg. Og fint nok at f\xc3\xb8lelserne absolut skal pakkes s\xc3\xa5 forsvarligt ind rent musikalsk, men s\xc3\xa5 skal det alts\xc3\xa5 ogs\xc3\xa5 v\xc3\xa6re kunstf\xc3\xa6rdigt.Og enkelheden p\xc3\xa5 Carrie & Lowell er for lidt af det hele. For lidt r\xc3\xa5 f\xc3\xb8lelse, men ogs\xc3\xa5 for lidt forarbejdning, kunstnerisk stillingtagen, kunne man kalde det. Ogs\xc3\xa5 live. Hvor Stevens\xe2\x80\x99 stemme endda er panoreret langt ud i h\xc3\xb8jre og venstre kanal og dermed ikke synes at komme fra et menneske i midten af lydbilledet, men fra noget \xc3\xa6terisk og kropsl\xc3\xb8st.N\xc3\xa5, men, det endte godt. Afslutningen p\xc3\xa5 hoveds\xc3\xa6ttet, med \xc2\xbbBlue Bucket of Gold\xc2\xab, det sidste nummer p\xc3\xa5 Carrie & Lowell, syrede helt ud i en over 10 minutter lang, stadig mere kosmisk psykedelisk retrosyntetisk finale. Som at v\xc3\xa6re p\xc3\xa5 LSD-trip i en sci-fi-serie fra 70\xe2\x80\x99erne i selskab med et progrock-band.Og ekstranumrene rummede perler som \xc2\xbbJohn Wayne Gacy, Jr.\xc2\xab, \xc2\xbbChicago\xc2\xab og en fabelagtig nyfortolkning af \xc2\xbbFutile Devices\xc2\xab, hvor elguitar og klaver kurrede s\xc3\xa5 smukt sammen, hvorefter tangentspilleren Steve Moore ben\xc3\xa5dede os med den smukkeste, cirklende afslutningssolo p\xc3\xa5 h\xc3\xa5ndholdt keyboard. Som om han var tr\xc3\xa5dt ind fra en mere eventyrlig dimension. I det hele taget fandt bandet tilsyneladende en langt st\xc3\xb8rre rigdom i disse afsluttende sange. En mere fri tilgang gav den sidste musik helt uventet farve i kinderne \xe2\x80\x93 og s\xc3\xa5 fremdeles ogs\xc3\xa5 i publikums kinder. Eller i hvert fald denne gnavpots.Sufjan Stevens med band \xe2\x80\x93 Falconer Salen, Frederiksberg, mandag'
p13
asS'telegram201509arlamu'
p14
(lp15
S'2015/09'
p16
aS'Arla: Muhammed-tegningerne er ikke et emne mere'
p17
aS'Mejeriselskabet Arla blev ramt h\xc3\xa5rdt af boykot under Muhammed-krisen, men tordner i dag frem i Mellem\xc3\xb8sten'
p18
ag5
aS' Mejerigiganten Arla ser i dag kun Muhammed-krisen i bakspejlet og har f\xc3\xa5et forretningen tilbage p\xc3\xa5 sporet, efter den massive boykot selskabets produkter blev udsat for som f\xc3\xb8lge af Jyllands-Postens karikaturer.Boykotten i Mellem\xc3\xb8sten kostede i \xc3\xa5rene 2006-2009 Arla i omegnen af to milliarder kroner i oms\xc3\xa6tning, men i dag har forretningen rettet sig og er endda vokset til en \xc3\xa5rlig oms\xc3\xa6tning p\xc3\xa5 cirka 5,5 milliarder kroner, fort\xc3\xa6ller koncernchef Finn Hansen.- Vores forretning i regionen er i dag omkring tre gange st\xc3\xb8rre, end den var for 10 \xc3\xa5r siden, og vi oplever ikke, at begivenhederne dengang skygger for vores forretning i dag, siger han til Ritzau.- Vi oplever, at vi konkurrerer p\xc3\xa5 lige vilk\xc3\xa5r med andre mejeriselskaber og registrerer ikke nogen form for bagsnak blandt forbrugerne eller p\xc3\xa5 de sociale medier.- Det er simpelthen ikke noget emne mere, siger Finn Hansen.Kort efter protesterne mod Muhammed-tegningerne toppede i februar 2006 vakte Arla opsigt ved at indrykke arabisksprogede annoncer i 25 aviser i Mellem\xc3\xb8sten, hvori selskabet tog afstand fra tegningerne.Den tidligere imam, Akhmed Akkari, der var med til at opildne til hadet mod Danmark, har i en bog sidste \xc3\xa5r desuden h\xc3\xa6vdet, at Arla i samme periode betalte penge til muslimske organisationer i Mellem\xc3\xb8sten for at mildne boykotten.Den udl\xc3\xa6gning \xc3\xb8nsker koncernchef Finn Hansen i dag ikke at kommentere.- Der er afsindig mange versioner af, hvad der foregik dengang, og vi har besluttet ikke at kommentere dem, selvom man godt kunne have lyst til det engang imellem, siger han.'
p19
asS'moti201502brevkassen'
p20
(lp21
S'2015/02'
p22
aS'Brevkassen: Hvorfor er skilsmisse et tabuemne?'
p23
aS'Som det fjerde for\xc3\xa6ldrepar fra 2.A p\xc3\xa5 vores skole siden sommerferien skal min s\xc3\xb8ns bedste vens for\xc3\xa6ldre nu skilles, har de erkl\xc3\xa6ret'
p24
ag5
aS' Deres hjem har v\xc3\xa6ret en tryg, varm oase for min s\xc3\xb8n, lige siden de to r\xc3\xb8dder gik i vuggestue sammen, og derfor er jeg selvf\xc3\xb8lgelig trist over det af egoistiske grunde.Men overordnet er jeg ogs\xc3\xa5 trist over, at s\xc3\xa5 mange for\xc3\xa6ldre til mine b\xc3\xb8rns venner opgiver at v\xc3\xa6re sammen s\xc3\xa5 tidligt i b\xc3\xb8rnenes liv. Hver gang det sker, ser jeg mange \xc3\xa5rs store problemer og udfordringer for de b\xc3\xb8rn med at f\xc3\xa5 deres opv\xc3\xa6kst til at h\xc3\xa6nge sammen (selv om jeg godt ved, at skilsmisser ogs\xc3\xa5 kan have fordele, i hvert fald for for\xc3\xa6ldrene).Men det virker som et stort tabu at diskutere, om det er problematisk med alle de skilsmisser. Det ender altid med at folk siger, at man jo skal g\xc3\xb8re det, man har lyst til, og s\xc3\xa5 er diskussionen forbi. Findes der virkelig ikke nogen m\xc3\xa5de at tage en kritisk debat om det med, at der skal s\xc3\xa5 lidt til, f\xc3\xb8r folk opl\xc3\xb8ser deres familier? N\xc3\xa5r vi nu kan have kritiske debatter om n\xc3\xa6rmest alt andet?\xe2\x80\x93 S\xc3\xb8ren, K\xc3\xb8benhavnSvar I:Da jeg var blevet skilt fra min f\xc3\xb8rste mand, fik jeg utrolig meget sk\xc3\xa6ld ud af en af mine s\xc3\xb8nner. Jeg tog skideballen, holdt fast i min beslutning og sagde: \xc2\xbbVent til du selv er henne og pr\xc3\xb8ve det der med k\xc3\xa6rlighed.\xc2\xab Han er senere, langt senere, kommet tilbage og har sagt undskyld \xe2\x80\xa6 Da han selv havde pr\xc3\xb8vet et brud.Men det betyder ikke, at jeg ikke er enig med dig i, at det burde v\xc3\xa6re noget, man burde kunne diskutere rationelt. Sp\xc3\xb8gsm\xc3\xa5let er bare med hvem og om hvad? Er \xc3\xa6gteskabet en kontrakt, hvor man bliver enige om, at danne ramme for en tryg barndom for b\xc3\xb8rn og deres barndom? Eller er \xc3\xa6gteskabet en lidenskabelig k\xc3\xa6rlighedsaff\xc3\xa6re, hvor den ene ofte elsker mere end den anden? Eller hvor der kan ske det, at man holder op at elske \xe2\x80\x93 og hvad g\xc3\xb8r man s\xc3\xa5?Jeg er blevet skilt to gange. Det er to enorme forlis. Problemet er blot. at jeg ikke kan se, hvordan jeg skulle have undg\xc3\xa5et det. Min barndomserfaring var, at mine for\xc3\xa6ldre blev skilt, og det blev de efter utallige \xc3\xa5rs d\xc3\xa5rligt \xc3\xa6gteskab. S\xc3\xa5 jeg var faktisk glad for, at de blev skilt, fordi det var v\xc3\xa6rre, da de var gift.S\xc3\xa5 det gode sp\xc3\xb8rgsm\xc3\xa5l er vel, hvem det er, der skal diskutere kritisk og rationelt? Og svaret er, at det kan kun de implicerede parter, og at det pr\xc3\xa6cis er det de ofte er ude af stand til. \xc3\x86gteskaber kan ende i hul midt i spanden. Og s\xc3\xa5 g\xc3\xa5r sangen i ring.\xe2\x80\x93\xc2\xa0 Tine ByrckelSvar II:Tilbage sidst i 90\xe2\x80\x99erne udspillede der sig her p\xc3\xa5 avisen en veritabel s\xc3\xa6delighedsfejde. Frontfigurerne var dav\xc3\xa6rende featuredakt\xc3\xb8r Bjarke M\xc3\xb8ller og dav\xc3\xa6rende arkitekturmedarbejder Allan de Waal. Der blev r\xc3\xa5bt rigtigt h\xc3\xb8jt p\xc3\xa5 de indre linjer og skrevet ledere og kommentarer mod hinanden i spalterne. Det var M\xc3\xb8llers \xe2\x80\x99kyskhedens\xe2\x80\x99 opg\xc3\xb8r med \xe2\x80\x9968\xe2\x80\x99ernes smertefulde skilsmissekultur\xe2\x80\x99 over for de Waals \xe2\x80\x99libert\xc3\xa6re tradition\xe2\x80\x99 i kamp mod en \xe2\x80\x99spirende nypuritansk moralisme\xe2\x80\x99.Den var aldrig g\xc3\xa5et p\xc3\xa5 en rigtig avis.Jeg tror, det tabu, du oplever, har rod her \xe2\x80\x93 ikke i Informations gamle debat, men i den moralisme, puritanerne har domineret skilsmissekritikken med, siden ordet \xe2\x80\x99kulturradikal\xe2\x80\x99 blev oph\xc3\xb8jet til sk\xc3\xa6ldsord omkring \xc3\xa5rtusindskiftet.J\xc3\xb8rgen Leth har en gang sagt, at det ikke er et moralsk problem at have flere kvinder; det er et praktisk. Jeg tror, jeg er enig, selv om min erfaring er en anden: Det er muligvis en bedrift, at min kone og jeg har v\xc3\xa6ret k\xc3\xa6rester siden teenage\xc3\xa5rene, men den ikke af moralsk karakter.En moderne og progressiv kritik af skilsmisseproblematikken \xe2\x80\x93 som af familieformer og samlivskultur i \xc3\xb8vrigt \xe2\x80\x93 m\xc3\xa5 finde et st\xc3\xa5sted uden for det kl\xc3\xa6gt moraliserende \xe2\x80\x99hvor er det flot, I bliver sammen\xe2\x80\x99 og \xe2\x80\x99hvor er det synd, I bliver skilt\xe2\x80\x99.Hvor det punkt ligger, ved jeg ikke, men s\xc3\xa5 l\xc3\xa6nge moralismen dominerer, tror jeg ogs\xc3\xa5, at jeg selv i den situation ville affeje kritik med min ret til frihed.Og k\xc3\xa6rligheden? Den styrer for vildt uanset hvad.\xe2\x80\x93\xc2\xa0 Jon J\xc3\xb8rgensen'
p25
asS'kulturanmeldelse2015'
p26
(lp27
S'2015/'
p28
aS'Tungt emne i for let film'
p29
aS'\xe2\x80\x99Tavshedens labyrint\xe2\x80\x99 formidler et vigtigt og rystende stof om en ung advokat, der opdager at de ansvarlige for Holocaust g\xc3\xa5r frit rundt i Tyskland anno 1958. Men det giver den ikke ret til at kede med sin for individuelt orienterede fort\xc3\xa6lling'
p30
ag5
aS' \xc2\xbbSp\xc3\xb8rg din far, hvorfor han drikker.\xc2\xab Svaret er: Fordi han arbejdede i KZ-lejr. Sp\xc3\xb8rgsm\xc3\xa5let bliver stillet til k\xc3\xa6resten, og det kommer fra den unge idealistiske advokat Johan Radmann, der er begyndt at grave i det un\xc3\xa6vnelige i Frankfurt i 1958. Tyskland er i gang med et \xc3\xb8konomisk opsving og et gigantisk hukommelsestab. Men den ubehagelige sandhed om almindelige menneskers ub\xc3\xa6rlige skyld og banale ondskab under Holocaust m\xc3\xa5 og skal se dagens lys.Det er naturligvis en vigtig erkendelse og diskussion, der er p\xc3\xa5 spil her. Hvor vigtigt det er at f\xc3\xa5 traumerne frem i lyset og de ansvarlige stillet til ansvar. Og hvor ubehageligt det er for en nation at skulle g\xc3\xb8re netop d\xc3\xa9t. I nutidens Argentina og Spanien for eksempel halter opg\xc3\xb8rene med forbrydelserne under milit\xc3\xa6rdiktaturerne stadig. Herhjemme har vi det med at glemme, hvor skidt vi behandlede \xe2\x80\x93 eller rettere ikke behandlede \xe2\x80\x93 syge, tyske b\xc3\xb8rn efter Anden Verdenskrig. Og med Holocaust har vi at g\xc3\xb8re med en af de mest ufattelige forbrydelser i menneskehedens historie, og s\xc3\xa5 kunne man alts\xc3\xa5 som overlever i sen-50\xe2\x80\x99ernes Vesttyskland rende ind i en af sine fangevogtere fra Auschwitz og deslige. Alene i d\xc3\xa9n lejr arbejdede 8.000 SS-folk if\xc3\xb8lge filmen.Radmann er en fiktiv skikkelse \xe2\x80\x93 i virkeligheden var det Joachim K\xc3\xbcgler, Georg Friedrich Vogel og Gerhard Wiese, der f\xc3\xb8rte den f\xc3\xb8rste Auschwitz-sag ved domstolen i Frankfurt \xe2\x80\x93 mens filmens journalist Thomas Gnielka, der f\xc3\xa5r kastet lys over sagen, og rigsadvokat Fritz Bauer, der f\xc3\xa5r sat skred i processen, er hentet fra virkeligheden.Et nyt TysklandEn anden virkelig person, dav\xc3\xa6rende kansler Konrad Adenauer havde p\xc3\xa5 dette tidspunkt sagt, at det var p\xc3\xa5 tide at s\xc3\xa6tte punktum, se fremad og l\xc3\xa6gge historien bag sig. Og befolkningen troede generelt at KZ-lejrene bare var krigsfangelejre lige som de allieredes. R\xc3\xa6sonnementet var at historien ville forgifte et nyt Tyskland i gang med at danse til rock\xe2\x80\x99n\xe2\x80\x99roll, drikke Coca-Cola og nyde sit \xc3\xb8konomiske opsving. Gnielka og Bauer (og i filmen Radmann) mener tv\xc3\xa6rtimod og heldigvis at forgiftningen gemmer sig i fortr\xc3\xa6ngningen af historien.Blandt topnazisterne, der var undsluppet ustraffet var en af de centrale Holocaust-arkitekter Adolf Eichmann og den sadistisk eksperimterende lejrl\xc3\xa6ge Dr. Josef Mengele. F\xc3\xb8rstn\xc3\xa6vnte fangede Mossad i Argentina, og han blev d\xc3\xb8mt til d\xc3\xb8den i Jerusalem. Sidstn\xc3\xa6vnte havde bes\xc3\xb8gt Europa efter krigen, men forsvandt fra Argentina, da nazij\xc3\xa6gerne Simon Wiesenthal og Hermann Langbein endelig i 1959 fik de vesttyske myndigheder til at udstede en arrestordre p\xc3\xa5 ham. Han d\xc3\xb8de under falsk navn i Brasilien i 1979. Med Radmann som den ind\xc3\xa6dte og indignerede protagonist bliver Tavshedens Labyrint til den klassiske historie om den ind\xc3\xa6dte ener mod det r\xc3\xa5dne system.Lig i lastenSelvom filmen ikke fors\xc3\xb8ger at skjule at han f\xc3\xa5r masser af hj\xc3\xa6lp, s\xc3\xa5 kommer det alligevel til i for h\xc3\xb8j grad at dreje sig om den stadig mere kuldsl\xc3\xa5ede unge mand selv og dertil hans forelskelse. Bevares, den verdenshistoriske fort\xc3\xa6lling kommer s\xc3\xa5 ogs\xc3\xa5 til udtryk i det private, hvor stort set alle for\xc3\xa6ldre i Tyskland har lig i lasten. Men den er rig p\xc3\xa5 klicheer og f\xc3\xa5r filmen til at tabe momentum, ikke mindst fordi Alexander Fehling ikke er en overdrevet karismatisk hovedrolleindehaver. Soundtracket er virkelig heller ikke ophidsende i al sin tunge dogmatik. Og dertil kommer at Tavshedens Labyrint er filmet som en tv-serie med anonyme indstillinger uden sanselighed, n\xc3\xa6rv\xc3\xa6r, for slet ikke at tale om stillingtagen. Man efterlades med f\xc3\xb8lelsen af, at der enten er for meget eller for lidt med i billederne. At fotograferingen ikke har anden intention end at forevige det spillede teater foran kameraobjektivet.Tavshedens Labyrint er en okay, men kunstnerisk uford\xc3\xb8jet indf\xc3\xb8ring i hvordan et posttraumatisk land skal i gang med at hele sine s\xc3\xa5r. Gennem erindring og justits. P\xc3\xa5 den konto f\xc3\xa5r filmen meget for\xc3\xa6rende af begivenhedernes oprindelige gang. Men dens fors\xc3\xb8g p\xc3\xa5 at g\xc3\xb8re et stykke verdenshistorie til en fort\xc3\xa6lling om enerens kamp mod systemet er en for letbenet konstruktion, der sl\xc3\xb8rer det centrale tema. Og det synes s\xc3\xa5 samtidig at v\xc3\xa6re d\xc3\xa9n eneste kunstneriske frihed, der er taget. Og det er for lidt.Tavshedens labyrint. Instruktion: Giullio Ricciarelli. Manuskript: Elisabeth Bartel og Giullio Ricciarelli. Tysk. Biografer landet over'
p31
asS'kulturanmeldelse2012'
p32
(lp33
S'2012/'
p34
aS'En \xc3\xa6rkeamerikansk roman om et \xc3\xa6rkeamerikansk emne'
p35
aS'Flannery O\xe2\x80\x99Connors 50 \xc3\xa5r gamle roman er nu at finde p\xc3\xa5 dansk \xe2\x80\x94 og f\xc3\xb8les ikke lige s\xc3\xa5 gammel, som den er'
p36
ag5
aS' Flannery O\xe2\x80\x99Connors Voldsm\xc3\xa6nd river det til sig har m\xc3\xa5ttet vente l\xc3\xa6nge. Ikke blot p\xc3\xa5 n\xc3\xa6rv\xc3\xa6rende anmeldelse, men ogs\xc3\xa5 p\xc3\xa5 sin danske overs\xc3\xa6ttelse, der kommer et halvt \xc3\xa5rhundrede efter romanens udgivelse i USA. \xc3\x85rsagen til det f\xc3\xb8rste skyldes travlhed og kr\xc3\xa6ver en undskyldning.Hvad \xc3\xa5rsagen til det andet er, har jeg ingen id\xc3\xa9 om, men nogen burde da undskylde ogs\xc3\xa5 for det. Blot ikke det lille forlag Arena, som sidste \xc3\xa5r udsendte den i Karsten Sand Iversens fine overs\xc3\xa6ttelse.I forvejen har vi O\xe2\x80\x99Connors (1925-1964) noveller p\xc3\xa5 dansk, og det er trods alt med den form, hun i sin tid etablerede sig som en af USA\xe2\x80\x99s mest markante litter\xc3\xa6re stemmer. De fleste af disse \xe2\x80\x94 samlet i to bind, hvoraf Af Good Man is Hard to Find (1995) regnes for et amerikansk hovedv\xc3\xa6rk \xe2\x80\x94 er b\xc3\xa5ret af en kulsort humor, og handler groft sagt om sk\xc3\xa6ve eksistenser, der taler om og funderer over livet, d\xc3\xb8den og religionen, mens de f\xc3\xa5r deres skiftevis voldsomme og trivielle dage til at g\xc3\xa5.O\xe2\x80\x99Connor er tit blevet sammenlignet med William Faulkner, og begge har da ogs\xc3\xa5 et skarpt blik for groteske sk\xc3\xa6bner plaget af sydstaternes tragiske historie, fremmedg\xc3\xb8relse over for det moderne USA og kollektive skyldf\xc3\xb8lelse over slaveriet.I Voldsm\xc3\xa6nd river det til sig handler det om den 14-\xc3\xa5rige for\xc3\xa6ldrel\xc3\xb8se dreng Francis, der er splittet mellem sin afd\xc3\xb8de grandonkels religi\xc3\xb8se dogmer og en anden onkels mere humane tilgang til livet.\xc3\x86rkeamerikansk emneI tilbageblik f\xc3\xa5r vi forklaringerne p\xc3\xa5, hvorfor Francis er vokset op i en hytte i skoven hos sin grandonkel, Tarwater, og hvorfor forholdet mellem Tarwater og dennes nev\xc3\xb8, Rayber, er blevet s\xc3\xa5 tilspidset, som tilf\xc3\xa6ldet er.Denne f\xc3\xb8rste del af romanen tynges af religi\xc3\xb8se funderinger, men da Francis efter Tarwaters d\xc3\xb8d tager til byen for at forf\xc3\xb8lge sin sk\xc3\xa6bne som profet og p\xc3\xa5 opfordring fra Tarwater d\xc3\xb8ber Raybers handicappede barn, folder dramaet sig ud.Rayber pr\xc3\xb8ver p\xc3\xa5 alle m\xc3\xa5der at overbevise Francis om, at Tarwater blot var en gal tyran; men ikke blot synes Francis lige s\xc3\xa5 st\xc3\xa6dig som Tarwater, Rayber \xe2\x80\x94 der er blevet forladt af konen og har fors\xc3\xb8gt at drukne sin handicappede dreng \xe2\x80\x94 k\xc3\xa6mper ogs\xc3\xa5 selv med tvivlen om, hvorvidt man er herre over sin egen sk\xc3\xa6bne.Aktuel igenFor s\xc3\xa5 vidt er Voldsm\xc3\xa6nd river det til sig en \xc3\xa6rkeamerikansk roman om et \xc3\xa6rkeamerikansk emne. Yderligere er den heftigt ladet med symboler og diskussioner af religi\xc3\xb8s art, hvorfor romanen nok ikke vil appellere til det brede danske publikum.P\xc3\xa5 den anden side: Sp\xc3\xb8rgsm\xc3\xa5let om, hvor meget vi skal lade os f\xc3\xb8re af religionen, og hvorvidt humanismen blot er en d\xc3\xa5rlig undskyldning for manglende mod, er som bekendt atter aktuelt, s\xc3\xa5 Voldsm\xc3\xa6nd river det til sig f\xc3\xb8les trods alt ikke lige s\xc3\xa5 gammel, som den er.'
p37
asS'telegram201506eksklu'
p38
(lp39
S'2015/06'
p40
aS'Ekskluderede Rusland er et centralt emne under G7-m\xc3\xb8det'
p41
aS'Krisen i Ukraine vil under G7-m\xc3\xb8det blive diskuteret uden Vladimir Putins tilstedev\xc3\xa6relse.'
p42
ag5
aS' N\xc3\xa5r lederne af verdens f\xc3\xb8rende industrinationer s\xc3\xb8ndag og mandag m\xc3\xb8des i Tyskland for at diskutere f\xc3\xa6lles udfordringer, vil kampene i det \xc3\xb8stlige Ukraine v\xc3\xa6re et helt centralt punkt.Det st\xc3\xa5r klart, efter flere af lederne s\xc3\xb8ndag er ankommet til Tyskland, hvor m\xc3\xb8det holdes.- Over de n\xc3\xa6ste to dage vil vi diskutere vores modstand mod Ruslands aggressioner i Ukraine, sagde den amerikanske pr\xc3\xa6sident, Barack Obama, if\xc3\xb8lge nyhedsbureauet Reuters, da han ankom i Tyskland.Samtidig fremh\xc3\xa6vede han fokus p\xc3\xa5 blandt andet den globale \xc3\xb8konomi, skabelsen af nye handelsaftaler og bek\xc3\xa6mpelse af voldelig ekstremisme og klimaforandringer som emner, der vil blive diskuteret p\xc3\xa5 G7 -topm\xc3\xb8det.Den amerikanske pr\xc3\xa6sident holdt s\xc3\xb8ndag et privat m\xc3\xb8de med den tyske kansler, Angela Merkel, hvor de to blev enige om, at Vestens sanktioner mod Rusland, b\xc3\xb8r forl\xc3\xa6nges indtil Rusland overholder v\xc3\xa5benhvilen, som blev aftalt i februar.- De to ledere diskuterede den igangv\xc3\xa6rende krise i Ukraine og blev enige om, at sanktionernes varighed b\xc3\xb8r h\xc3\xa6nge klart sammen med Ruslands fulde implementering af Minsk-aftalen og respekten for Ukraines suver\xc3\xa6nitet, skriver Det Hvide Hus if\xc3\xb8lge nyhedsbureauet AFP i en udtalelse.Ogs\xc3\xa5 den britiske premierminister, David Cameron, talte om behovet for at st\xc3\xa5 sammen om sanktionerne mod Rusland, selvom de g\xc3\xb8r ondt p\xc3\xa5 alle.- Vi m\xc3\xa5 sikre os, at Europa forbliver forenet, sagde han if\xc3\xb8lge Reuters ved ankomsten til m\xc3\xb8det.EU-pr\xc3\xa6sident Donald Tusk udtrykte s\xc3\xb8ndag ligeledes et \xc3\xb8nske om at signalere enhed mod Rusland i Ukraine-krisen.- Min intention i dag er, at vi genbekr\xc3\xa6fter G7 -landenes sammenhold om sanktionspolitikken, siger han s\xc3\xb8ndag if\xc3\xb8lge Reuters.- S\xc3\xa5 i lyset af den nuv\xc3\xa6rende situation vil jeg gerne sl\xc3\xa5 meget klart fast, at hvis nogen vil starte en diskussion om at \xc3\xa6ndre sanktionerne, kan det kun v\xc3\xa6re for at sk\xc3\xa6rpe dem.N\xc3\xa5r G7-m\xc3\xb8det g\xc3\xa5r i gang, vil \xc3\xa9n stol st\xc3\xa5 tom. Tidligere hed gruppen G8, men Ruslands pr\xc3\xa6sident, Vladimir Putin, blev ekskluderet fra det fornemme selskab, da Rusland annekterede Krim-halv\xc3\xb8en i marts 2014.'
p43
asS'telegram201210ditlev'
p44
(lp45
S'2012/10'
p46
aS'Ditlev Engel klapper i om brandvarme emner'
p47
aS'Der er ikke meget nyt fra chefen i Vestas p\xc3\xa5 "\xc3\xa5bent hus"-arrangement hos Vestas. Engel vil ikke sige noget.'
p48
ag5
aS' Der er masser at skrive om Vestas.Men selskabets direkt\xc3\xb8r Ditlev Engel har ikke t\xc3\xa6nkt sig at bidrage til skriverierne i forbindelse med, at d\xc3\xb8rene onsdag er sl\xc3\xa5et op for analytikere og erhvervsjournalister i selskabets hovedkontor ved Aarhus til den s\xc3\xa5kaldte kapitalsmarkedsdag.Og sp\xc3\xb8rgsm\xc3\xa5lene er mange. I fl\xc3\xa6ng kan n\xc3\xa6vnes om Vestas s\xc3\xa6lges, hvem st\xc3\xa5r p\xc3\xa5 spring for at f\xc3\xa5 en bid af den danske vindm\xc3\xb8lleikon, og hvad med den fyrede \xc3\xb8konomidirekt\xc3\xb8r Henrik N\xc3\xb8rremarks hemmelige indiske aftaler.- I dag skal vi ikke tale om vores bankforbindelser, om Mitsubishi, eller om den meddelelse, vi sendte ud i g\xc3\xa5r aftes (tirsdag, red.) omkring vores tidligere finansdirekt\xc3\xb8r, siger Ditlev Engel if\xc3\xb8lge Ritzau Finans.I stedet vil man fort\xc3\xa6lle om Vestas\' besparelser og effektiviseringer i m\xc3\xb8lleproduktionen samt den voksende servicedivision i selskabet.I forbindelse med sparekrav har Vestas af to omgange meldt fyringer af 3700 ansatte ud. Indtil videre er de 2700 effektueret.Fyringerne har ikke kun ramt folk p\xc3\xa5 gulvet - ogs\xc3\xa5 chefgangen har holdt for. Eksempelvis er der i dag kun halvdelen tilbage af de tidligere "top 30"-chefer i Vestas, siger Ditlev Engel.'
p49
asS'telegram201503overbl'
p50
(lp51
S'2015/03'
p52
aS'Overblik: Her er de mulige republikanske pr\xc3\xa6sidentemner'
p53
aS'Det er et bredt felt af kandidater, der er i spil til at blive Republikanernes bud p\xc3\xa5 en amerikansk pr\xc3\xa6sident'
p54
ag5
aS' Marco Rubio siger mandag, at der snart vil komme en stor udmelding fra hans side. 13. april vil han sandsynligvis annoncere sit kandidatur til pr\xc3\xa6sidentposten.Her er de 11 mest sandsynlige navne i kapl\xc3\xb8bet om at vinde Republikanernes nominering:* Jeb Bush, tidligere guvern\xc3\xb8r i Florida. Skrev p\xc3\xa5 Facebook, at han aktivt udforsker mulighederne for et pr\xc3\xa6sidentkandidatur.* Scott Walker, guvern\xc3\xb8r i Wisconsin. Hvis han stiller op, tiltr\xc3\xa6kker han de samme v\xc3\xa6lgere som Ted Cruz.* Chris Christie, guvern\xc3\xb8r i New Jersey. Christie har offentligt udtalt, at han overvejer det.* Mike Huckabee, tidligere guvern\xc3\xb8r i Arkansas. Huckabee er ligeledes en kandidat af samme kaliber som Cruz, og de vil k\xc3\xa6mpe om de samme stemmer.* Marco Rubio, amerikansk senator. Har blandt andet ansat Mitt Romneys tidligere kampagneleder og vil komme med en udmelding 13. april.* Rand Paul, amerikansk senator. If\xc3\xb8lge kilder annoncerer Paul sit pr\xc3\xa6sidentkandidatur 7. april.* Rick Santorum, tidligere senator.* Rick Perry, tidligere guvern\xc3\xb8r i Texas. - Jeg har brugt 22-23 m\xc3\xa5neder til at forberede at stille op som pr\xc3\xa6sident, er Perry citeret for at sige.* Bobby Jindal, guvern\xc3\xb8r i Louisiana.* Carly Fiorina, tidligere erhvervsleder. "Overvejer st\xc3\xa6rkt" at stille op. Har sagt til Fox News, at der er mere end 90 procent sandsynlighed for, at hun stiller op.* Ben Carson, pensioneret hjernekirurg.Kilde: New York Times'
p55
as.