(dp0
S'mofomorboervide'
p1
(lp2
S'/'
p3
aS'\xe2\x80\x99En mor b\xc3\xb8r vide\xe2\x80\x99'
p4
aS''
p5
ag5
ag5
asS'mofoamerikanskpoliti'
p6
(lp7
g3
aS'Amerikansk politik - m\xc3\xa6nd uden kvinder\r'
p8
ag5
ag5
aS'\r\r'
p9
asS'indland201003langbal'
p10
(lp11
S'2010/03'
p12
aS'Langballe anklages for homofobi og hadefuld tale'
p13
aS"'De homoseksuelle render myndighederne p\xc3\xa5 d\xc3\xb8rene for at blive erkl\xc3\xa6ret normale,' lyder det fra Dansk Folkepartis Jesper Langballe i ny bog. Rendyrket homofobi og kr\xc3\xa6nkende hate speech, lyder reaktionerne fra b\xc3\xa5de flere politikere og  de homoseksuelles egne r\xc3\xa6kker"
p14
aS"Jesper Langballe sk\xc3\xa6lder og sm\xc3\xa6lder mod de 'epidemiske' homoseksuelle og ikke mindst mod deres debat og sp\xc3\xb8rgsm\xc3\xa5l om, hvorn\xc3\xa5r de blive ligestillet med andre (skatte) borgere i et demokratisk lands statskirke og blive kirkelig viet. Han deler ogs\xc3\xa5 homoer op i de 'normale', der er disponeret for det tidligt i livet og dem, der af livslede v\xc3\xa6lger den homoseksuelle livsstil, g\xc3\xb8r sig til og er besv\xc3\xa6rlige."
p15
aS" Mange homoseksuelles seksualitet er udtryk for en epidemisk ideologi, som blot udspringer af deres egen livslede.S\xc3\xa5dan lyder det fra Dansk Folkepartis Jesper Langballe, der - som et indspark i den verserende debat om homoseksuelles ret til adoption og kirkelige vielser - har f\xc3\xa5et genoptrykt et essay, han skrev i 1995.Men DF'eren g\xc3\xa5r med sine udfald langt over stregen, mener formanden for Sex og Samfund, Christian Graugaard, der p\xc3\xa5peger, at mangfoldigheden i dagens seksualitetskultur m\xc3\xa5 v\xc3\xa6re g\xc3\xa5et henover hovedet p\xc3\xa5 Langballe:\xc2\xbbDet er homofobisk og gr\xc3\xa6nser til det, man m\xc3\xa5 kalde hate speech, fordi det opildner til d\xc3\xa6monisering og mist\xc3\xa6nkeligg\xc3\xb8relse af homoseksuelle,\xc2\xab siger han og frygter, at Langballes synspunkter kan v\xc3\xa6re en glidebane:\xc2\xbbI bedste fald er det dumt, i v\xc3\xa6rste fald kan det f\xc3\xb8re til, at homofobiske standpunkter breder sig i den danske seksualdebat, n\xc3\xa5r folkevalgte politikere fra regeringsb\xc3\xa6rende partier kan slippe afsted med at sige s\xc3\xa5dan noget.\xc2\xabOgs\xc3\xa5 n\xc3\xa6stformanden i Landsforeningen for B\xc3\xb8sser og Lesbiske, Lone Hvidegaard, mener, at Jesper Langballes ytringer er kr\xc3\xa6nkende:\xc2\xbbDet er noget forvr\xc3\xb8vlet ulogisk sludder, som intet har med saglige argumenter at g\xc3\xb8re, n\xc3\xa5r man p\xc3\xa5 en s\xc3\xa5 arbitr\xc3\xa6r m\xc3\xa5de fors\xc3\xb8ger at opdele mennesker, og nogle af udtalelserne kan nok kategoriseres som decideret hate speech,\xc2\xab siger hun og tilf\xc3\xb8jer:\xc2\xbbJeg har sv\xc3\xa6rt ved at skjule min hovedrysten.\xc2\xabTo slags homoerLangballe skelner i sin tekst mellem to forskellige former for homoseksuelle: P\xc3\xa5 den ene side dem, der er f\xc3\xb8dt med 'anl\xc3\xa6ggene', og p\xc3\xa5 den anden side dem, der er ofre for en modeb\xc3\xb8lge eller \xc2\xbbalmindelig livslede og en deraf f\xc3\xb8lgende jagt p\xc3\xa5 nye livseksperimenter.\xc2\xab Lone Hvidegaard afviser tesen som infam og ulogisk:\xc2\xbbAlle homoseksuelle er naturligvis ikke ens, ligesom heteroseksuelle ikke er det. Derfor findes der lige s\xc3\xa5 mange slags homoseksualitet, som der findes homoseksuelle,\xc2\xab siger hun.Langballe fremh\xc3\xa6ver 'modehomoerne' som dem, der f\xc3\xb8rer an i kampen for de nye rettigheder, hvilket er eskaleret og blevet '\xc3\xa5ndl\xc3\xb8st'. De andre - 'de rigtige' - \xc2\xbbhar normalt ikke p\xc3\xa5kaldt sig s\xc3\xa5 meget opm\xc3\xa6rksomhed\xc2\xab, p\xc3\xa5peger han og uddyber:\xc2\xbbDe organiserede homoseksuelle render myndigheder og biskopper p\xc3\xa5 d\xc3\xb8rene for at blive erkl\xc3\xa6ret normale og f\xc3\xa5 status og selvv\xc3\xa6rd gennem formaliserede ordninger og ritualer.\xc2\xabMen Langballes udl\xc3\xa6gning \xc2\xbber udtryk for en klassisk form for homofobi, der er forkl\xc3\xa6dt halvvejs som pseudovidenskab og halvvejs som civilisationskritik. Hvis den slags synspunkter vinder indpas, kan det b\xc3\xa6re ved til b\xc3\xa5let af homofobi, fordi det udn\xc3\xa6vner sex mellem mennesker af samme k\xc3\xb8n som noget forkert, en slags eksistentiel og moralsk blindgyde,\xc2\xab siger Christian Graugaard.PerverteringLangballe tager udgangspunkt i, at \xc2\xbbfrekvensen af homoseksualitet\xc2\xab er steget og ikke kan forklares ved, at det er blevet lettere at springe ud. Det er simpelthen udtryk for en 'homoseksuel ideologi' og den 'nuv\xc3\xa6rende vesterlandske forfaldsperiode',:\xc2\xbbHomoseksualitet sammen med andre perverteringer beror p\xc3\xa5 en almindelig modepr\xc3\xa6get oplevelseshunger, som bestandigt kr\xc3\xa6ver nye pirringer og dermed accelererer epidemisk,\xc2\xab hedder det i Langballes essay.Hele retorikken lyder som noget fra 1800-tallet, vurderer Graugaard, der kalder Langballes ytringer for 'et skingert ekko af fortiden':\xc2\xbbDet minder p\xc3\xa5faldende meget om den seksualitetsdebat, man havde for 100 \xc3\xa5r siden, for det var stort set samme argumenter og stort set samme ordlyd.\xc2\xabI det senmoderne Danmark anno 2010 h\xc3\xb8rer det ingen steder hjemme, mener han:\xc2\xbbDet er lige pr\xc3\xa6cis den form for argumentation, som vi bek\xc3\xa6mper. Det h\xc3\xb8rer til i lande, vi helst ikke vil sammenligne os med, og det er meget trist.\xc2\xabSimon Emil Ammitzb\xc3\xb8l fra Borgerligt Centrum er selv homoseksuel, men f\xc3\xb8ler sig ikke pr\xc3\xa6get af livslede. Dog opfatter han Langballes udtalelser som noget nedsl\xc3\xa5ende:\xc2\xbbDet er simpelthen s\xc3\xa5 langt fra virkeligheden og lyder som noget, man vil forbinde med fundamentalisme,\xc2\xab siger han og opfordrer Dansk Folkepartis top til at s\xc3\xa6tte Langballe p\xc3\xa5 plads, som de for nylig gjorde, da han ytrede sig om, at muslimske f\xc3\xa6dre slog deres d\xc3\xb8tre ihjel.Ogs\xc3\xa5 SF's ligestillingsordf\xc3\xb8rer, Kamal Qureshi, tager kraftigt afstand fra Langballes pointer, men mener, at de er udtryk for hele Dansk Folkepartis politik:\xc2\xbbDet er en ekstremt destruktiv og gr\xc3\xb8ftegravende adf\xc3\xa6rd, som jeg synes er b\xc3\xa5de udemokratisk, udansk og usympatisk, men det ligger desv\xc3\xa6rre meget godt i tr\xc3\xa5d med Dansk Folkepartis holdning p\xc3\xa5 omr\xc3\xa5det. Det h\xc3\xa6nder ogs\xc3\xa5, at Langballe er deres ordf\xc3\xb8rer i folketingssalen i disse sager,\xc2\xab siger han.Det var desv\xc3\xa6rre ikke muligt for Dagbladet Information trods adskillige henvendelser at f\xc3\xa5 en kommentar fra Jesper Langballe selv."
p16
asS'udland201002fodbolds'
p17
(lp18
S'2010/02'
p19
aS'Fodboldspillere n\xc3\xa6gter at deltage i homofobi-film'
p20
aS'Britiske fodboldspillere frygter latterligg\xc3\xb8relse og  afviser derfor at medvirke i homofobi-film. Situationen er  den samme i Danmark, mener Spillerforeningen'
p21
aS"Kunstneren John K\xc3\xb8rners v\xc3\xa6rk blev afvist af kronprinsparret. Her ses han i 2008 foran sit v\xc3\xa6rk '1st Floor Museum'."
p22
aS" Nej tak. S\xc3\xa5dan l\xc3\xb8d svaret fra engelske fodboldspillere og deres agenter, da de blev bedt om at medvirke i en videokampagne mod homofobi af den engelske spillerforening, Professionel Footballers' Association.If\xc3\xb8lge den britiske avis The Independent frygter spillerne, at de bliver gjort til grin, hvis de stiller sig op og st\xc3\xb8tter homoseksuelles rettigheder.\xc2\xbbM\xc3\xa5ske om tre-fire-fem \xc3\xa5r vil flere spillere involvere sig i kampagnen. I \xc3\xb8jeblikket er der ingen spillere, der vil v\xc3\xa6re den f\xc3\xb8rste til at stikke hovedet frem. Det handler om rette tid og sted,\xc2\xab fortalte en kilde fra spillerforeningen til den britiske avis.Den brede opfattelse i befolkningen, der st\xc3\xb8ttes af spillerforeningen, er, at det er nemmere at lokke fodboldeliten frem, hvis de gruppevis kan stille sig op og st\xc3\xb8tte \xc3\xa5benhed omkring seksuelle pr\xc3\xa6ferencer.Sportsfolk springer udDen britiske sportsverden har ellers positive historier om seksuel \xc3\xa5benhed. I december sprang Gareth Thomas som den f\xc3\xb8rste britiske rugbyspiller offentligt ud. Han var - indtil han i 2007 stoppede p\xc3\xa5 landsholdet - anf\xc3\xb8rer for Wales' landshold.Rugbyspilleren fik stor anerkendelse og blev hyldet bredt i befolkningen for \xc3\xa5benhed omkring sin seksualitet.Sidste \xc3\xa5r sprang ogs\xc3\xa5 irske Donal \xc3\x93g Cusack ud som homoseksuel. Han spiller professionel 'hurling' - en irsk sportsgren som i korte tr\xc3\xa6k er en blanding mellem fodbold og hockey.Men de positive modtagelser har alts\xc3\xa5 ikke f\xc3\xa5et de h\xc3\xb8jtprofilerede britiske fodboldspillere til at st\xc3\xa5 frem i  befolkningen og st\xc3\xb8tte seksuel \xc3\xa5benhed .\xc2\xbbAlle formoder, at fodboldspillere er fulde af selvtillid, men med emner som dette, er det ikke altid nemt,\xc2\xab sagde Gordon Taylor, formanden for den britiske spillerforening, i forg\xc3\xa5rs.I professionel britisk fodbold er der til dato kun \xc3\xa9t tilf\xc3\xa6lde, hvor en spiller er st\xc3\xa5et \xc3\xa5benlyst ved at v\xc3\xa6re homoseksuel. Justin Fashanu blev efter sin offentligg\xc3\xb8relse latterliggjort og mobbet. I 1998  blev Justin Fashanu anklaget for seksuelt overgreb mod en 17-\xc3\xa5rig dreng af amerikansk politi, hvorefter han i maj m\xc3\xa5ned begik selvmord. I selvmordsbrevet stod der, at hans relation til den 17-\xc3\xa5rige skete med den 17-\xc3\xa5riges samtykke.Dk satser p\xc3\xa5 'tolerance'Dansk fodbold har ogs\xc3\xa5 et problem med at erkende homoseksualitet, mener den danske spillerforenings formand, Mads \xc3\x98land.Spillerforeningen har dog ikke nogle tiltag a la det engelske - ej heller har de midlerne til en s\xc3\xa5dan kampagne.Mads \xc3\x98land mener, at sagen er s\xc3\xa5 principiel, at det b\xc3\xb8r v\xc3\xa6re Dansk Boldspil-Union, der griber fat i sagen. Men kommunikationsmedarbejder ved Dansk Boldspil-Union Jacob Wadland fort\xc3\xa6ller, at unionen ikke har m\xc3\xa5lrettede kampagner mod bek\xc3\xa6mpelsen af homofobi. I stedet satser de p\xc3\xa5 \xc2\xbbtolerance og \xc3\xa5benhed, uanset religion, race eller seksuel orientering\xc2\xab.Heller ikke hos dem skal man forvente yderligere tiltag i sagen om homofobi indenfor dansk fodbold, siger Jacob Wadland.The Football Association, den britiske pendant til DBU, besluttede sig i starten af ugen for at udskyde kampagnen, der skulle have haft premiere p\xc3\xa5 Wembley Stadium senere p\xc3\xa5 m\xc3\xa5neden. Den digitale virale antihomofobi-kampagne m\xc3\xa5 ogs\xc3\xa5 vente med afspilninger p\xc3\xa5 Youtube og andre internetfora.Videoen viser en mand r\xc3\xa5be ukvemsord med homoseksuelle undertoner efter en metropassager, kontorarbejdere og en aviss\xc3\xa6lger. Ligesom homofobi ikke b\xc3\xb8r tolereres p\xc3\xa5 arbejdspladsen, b\xc3\xb8r det heller ikke finde sted p\xc3\xa5 tilskuerr\xc3\xa6kkerne, er pointen med videoen.Redningen kan m\xc3\xa5ske komme fra en uventet kant. Rio Ferdinand, der er anf\xc3\xb8rer for det engelske fodboldlandshold, har tidligere f\xc3\xa5et negativ omtale i sp\xc3\xb8rgsm\xc3\xa5let om homoseksualitet. I et radioprogram i 2006 brugte han ordet faggot, hvilket skabte en del offentligt postyr. Fad\xc3\xa6sen er angiveligt ikke glemt i visse homoseksuelle kredse. Spillerforeningen h\xc3\xa5ber, at den nye anf\xc3\xb8rer vil tr\xc3\xa6de frem og rette op p\xc3\xa5 tidligere udtalelser, skriver The Independent."
p23
asS'mofoerdetkapitulatio'
p24
(lp25
g3
aS'Er det kapitulation, n\xc3\xa5r Hollywood t\xc3\xa6kkes Kina?\r'
p26
ag5
ag5
aS'\r\r'
p27
asS'udland200812homofobi'
p28
(lp29
S'2008/12'
p30
aS'Homofobisk pr\xc3\xa6st f\xc3\xa5r hovedrolle ved pr\xc3\xa6sidentinds\xc3\xa6ttelse'
p31
aS"Det har vakt forargelse i USA's homoseksuelle milj\xc3\xb8er, at Barack Obama har valgt en evangelisk pr\xc3\xa6st, der er kendt for sin modstand mod abort og homoseksuelle \xc3\xa6gteskaber, til at holde introduktionstalen ved sin inds\xc3\xa6ttelse"
p32
ag5
aS' Barack Obama afkr\xc3\xa6ves nu et forsvar for sin beslutning om at lade den evangeliske pr\xc3\xa6st Richard Warren holde introduktionstalen ved sin edsafl\xc3\xa6ggelses-ceremoni, efter at hans beslutning er blevet m\xc3\xb8dt med voldsom forargelse blandt de amerikanske homoseksuelle. Det var en overraskelse for mange, at Obama inviterede pastor Warren til at holde den s\xc3\xa5kaldte indvielses-tale p\xc3\xa5 trappen foran Capitol den 20. januar, og han har de seneste par dage haft travlt med at d\xc3\xa6mpe ramaskriget med henvisning til, at "det er vigtigt, at vi amerikanere kan finde noget at v\xc3\xa6re sammen om, selv om vi har vores uoverensstemmelser". \'Pastor Rick\', som pr\xc3\xa6sten kalder sig selv, st\xc3\xb8tter et forbud imod \xc3\xa6gteskab mellem homoseksuelle og er ogs\xc3\xa5 svoren modstander af abort. De homoseksuelle rettighedsgrupper var i forvejen i krigshum\xc3\xb8r, efter at homoseksuelle \xc3\xa6gteskaber er blevet forbudt i Californien, og de har v\xc3\xa6ret meget h\xc3\xb8jlydte i deres mishag. Dialog Kontroversen har fuldst\xc3\xa6ndig overskygget offentligg\xc3\xb8relsen af g\xc3\xa6stelisten med det stjernesp\xc3\xa6kkede, politisk korrekte galleri af figurer - med gospelstjernen Aretha Franklin, alias The Queen of Soul, i spidsen - som har f\xc3\xa5et lov at biv\xc3\xa5ne begivenheden. Obama har selv erkl\xc3\xa6ret, at han \xc3\xb8nsker, at hans edsafl\xc3\xa6ggelses-ceremoni skal v\xc3\xa6re "den mest \xc3\xa5bne og inkluderende i historien", og han har inviteret en sand regnbue af ber\xc3\xb8mte kunstnere, pr\xc3\xa6ster og ber\xc3\xb8mtheder, som skal synge, optr\xc3\xa6de, l\xc3\xa6se digte og velsigne ham ved ceremonien. Adspurgt om den homoseksuelle modstand imod pastor Warren siger Obama: "Der vil altid v\xc3\xa6re mange synspunkter om den sag, og det er ogs\xc3\xa5 s\xc3\xa5dan, det b\xc3\xb8r v\xc3\xa6re. Det er, hvad Amerika handler om. Vi er forskellige, og vi kan lide at sige vores \xc3\xa6rlige mening h\xc3\xb8jt. Det er i den \xc3\xa5nd, at vi har arrangeret det, og jeg tror, det bliver en fremragende ceremoni."Han henviser ogs\xc3\xa5 til, at han fik en meget elskv\xc3\xa6rdig modtagelse i Pastor Warrens kirke i Saddleback i det sydlige Californien, da han bes\xc3\xb8gte den for nogle \xc3\xa5r siden, sk\xc3\xb8nt han er s\xc3\xa6rdeles uenig med den ber\xc3\xb8mte pastor i sp\xc3\xb8rgsm\xc3\xa5l som abort og homoseksuelles rettigheder. "Dialog var en vigtig del af budskabet i min valgkamp," sagde Obama p\xc3\xa5 et pressem\xc3\xb8de i Chicago. "Vi kommer aldrig til at blive enige i \xc3\xa9t og alt, men vi er n\xc3\xb8dt til at skabe en atmosf\xc3\xa6re, hvori vi kan v\xc3\xa6re uenige." Edsafl\xc3\xa6ggelses-ceremonien forventes at blive det st\xc3\xb8rste folkem\xc3\xb8de i USA\'s historie - over fire millioner ventes at stimle sammen p\xc3\xa5 The Mall midt i den frysende kolde vinter i h\xc3\xa5b om at f\xc3\xa5 et glimt af Obamas inds\xc3\xa6ttelse. \'Det handler ikke om dig\'G\xc3\xa6steopbuddet til ceremonien er en veritabel bl\xc3\xa5 bog over USA\'s kulturelle smeltedigel og omfatter musikerne Itzhak Perlman, Yo-Yo Ma og Gabriela Montero. Dertil kommer den sorte digter og dramatiker Elizabeth Alexander, som har skrevet et digt i dagens anledning. San Franciscos drengekor og pigekor vil synge til. Ogs\xc3\xa5 borgerretsbev\xc3\xa6gelsen vil v\xc3\xa6re repr\xc3\xa6senteret, om end mindre fremtr\xc3\xa6dende end mange sorte ledere havde \xc3\xb8nsket sig. Obama har bedt pastor Joseph Lowery, som sammen med Martin Luther King stiftede Southern Christian Leadership Conference, om at fremsige velsignelsen.Snarere end at v\xc3\xa6re et historisk ritual anses indsv\xc3\xa6rgelses-programmet i dag som en markant personlig manifestation fra den tiltr\xc3\xa6dende pr\xc3\xa6sident, og som en m\xc3\xa5de hvorp\xc3\xa5 tonen sl\xc3\xa5s an for den nye regering. Lige siden George Washington tiltr\xc3\xa5dte i 1789, har hver eneste pr\xc3\xa6sident holdt en inds\xc3\xa6ttelsestale - den l\xc3\xa6ngste var p\xc3\xa5 8.445 ord, den korteste p\xc3\xa5 blot 135. Nogle af disse taler, som f.eks. Abraham Lincolns anden inds\xc3\xa6ttelsestale, der blev holdt lige efter borgerkrigen, er g\xc3\xa5et over i historien som mesterlige forsonligheds-handlinger. Trods forargelsen blandt USA\'s homoseksuelle anses valget af pastor Warren som et snedigt tr\xc3\xa6k fra Obamas overgangsholds side. Han er den mest popul\xc3\xa6re religi\xc3\xb8se figur i hele USA, hvis man ser bort fra paven. Han skrev The Purpose Driven Life med den meget citerede \xc3\xa5bningss\xc3\xa6tning "det handler ikke om dig", og bogen solgte i 20 millioner eksemplarer. Nyhedsmagasinet Time kalder ham for "hele det nye Amerikas pr\xc3\xa6st". Som en af de f\xc3\xa5 i den evangeliske bev\xc3\xa6gelse har Warren ogs\xc3\xa5 udtalt sig markant om den globale opvarmning. Han forholdt sig omhyggeligt neutral under valgkampen, sk\xc3\xb8nt mange evangelister pressede p\xc3\xa5 for at f\xc3\xa5 ham til at angribe Obama. Men hans ub\xc3\xb8jelige st\xc3\xb8tte til den \xc3\xa6ndring i Californiens forfatning, der forbyder \xc3\xa6gteskaber mellem personer af samme k\xc3\xb8n, var en r\xc3\xb8d klud i hovedet p\xc3\xa5 homoseksuelle aktivister. Formanden for Human Rights Campaign, Joe Solomonese, skrev et \xc3\xa5bent brev til Obama, hvori han erkl\xc3\xa6rede: "Vi f\xc3\xb8ler en betydelig grad af disrespekt, n\xc3\xa5r en af arkitekterne bag og propagandisterne for en antihomoseksuel agenda skal h\xc3\xa6dres ved at blive inviteret p\xc3\xa5 talestolen ved Deres historiske inds\xc3\xa6ttelse."\xc2\xa9 The Independent og InformationOversat af Niels Ivar Larsen'
p33
asS'mofobedsteblowjobvae'
p34
(lp35
g3
aS'\xe2\x80\x98Det var det bedste blowjob, og det var det v\xc3\xa6rste blowjob\xe2\x80\x98'
p36
ag5
ag5
ag5
asS'mofoidetstivestepuds'
p37
(lp38
g3
aS'I det stiveste puds til Critiques \xc3\xa5rsm\xc3\xb8de'
p39
ag5
ag5
ag5
asS'mofodetsidderikoedet'
p40
(lp41
g3
aS'Jeg blev voldtaget: \xe2\x80\x99Det sidder i k\xc3\xb8det. Stemplet i sindet: Ordet dum\xe2\x80\x99'
p42
ag5
ag5
ag5
asS'mofoplastikplagen'
p43
(lp44
g3
aS'Plastikplagen er klodens n\xc3\xa6ste udfordring\r'
p45
ag5
ag5
aS'\r\r'
p46
asS'mofodahanbegyndtesla'
p47
(lp48
g3
aS'Jeg blev voldtaget: \xe2\x80\x99Da han begyndte at sl\xc3\xa6be mig ind i skoven, vidste jeg, det var alvor\xe2\x80\x99\r'
p49
ag5
ag5
aS'\r\r'
p50
asS'mofoverdenifoelgetru'
p51
(lp52
g3
aS'Verden if\xc3\xb8lge Trump\r'
p53
ag5
ag5
aS'\r\r'
p54
asS'mofonaturenvendertil'
p55
(lp56
g3
aS'Naturen vender tilbage'
p57
ag5
ag5
ag5
asS'mofodendanskekrimisf'
p58
(lp59
g3
aS'Den danske krimis fem st\xc3\xb8rste synder'
p60
ag5
ag5
ag5
as.