(dp0
S'nyhedsblog201603akti'
p1
(lp2
S'2016/03'
p3
aS'Aktion\xc3\xa6rer: Danske Bank b\xc3\xb8r dele gevinst med skatteyderne'
p4
aS'Kritiske Aktion\xc3\xa6rer tordner mod forslag om endnu 8 milliarder kroner til aktion\xc3\xa6rerne, som har tjent 145 milliarder, siden staten hjalp banken gennem finanskrisen'
p5
aS''
p6
ag6
asS'nyhedsblog201411moed'
p7
(lp8
S'2014/11'
p9
aS'M\xc3\xb8d forfatterne'
p10
aS'Kom og h\xc3\xb8r de 6 nominerede forfattere til Montanas Litteraturpris 2014 l\xc3\xa6se op af deres v\xc3\xa6rker. Tilmelding her'
p11
ag6
ag6
asS'nyhedsblog201603verd'
p12
(lp13
S'2016/03'
p14
aS'En verden uden jobs?'
p15
aS'Vil robotterne frig\xc3\xb8re os fra arbejde? Hvordan ville verden s\xc3\xa5 se ud? Og er det godt eller d\xc3\xa5rligt. New York Times har arrangeret en fin dialog mellem Farhad Manjoo og Eduardo Porter, der n\xc3\xa5r omkring borgerl\xc3\xb8n, utopier og dystopier for fremtidens arbejdsmarked.'
p16
ag6
aS' They see a future in which a small group of highly skilled tech workers reign supreme, while the rest of the job world resembles the piecemeal, transitional work we see coming out of tech today (Uber drivers, Etsy shopkeepers, people who scrape by on other people\xe2\x80\x99s platforms).'
p17
asS'nyhedsblog201603punk'
p18
(lp19
S'2016/03'
p20
aS'\xe2\x80\x99Punkens \xc3\x85r\xe2\x80\x99'
p21
aS'En Sex Pistol-memorabilia samling til en v\xc3\xa6rdi af over fem mio. pund bliver br\xc3\xa6ndt af i protest mod borgerskabets omklamring af punken, meddeler Sex Pistol-manager Malcolm McLarens s\xc3\xb8n'
p22
ag6
ag6
asS'nyhedsblog20160316ne'
p23
(lp24
S'2016/03'
p25
aS'16 negative artikler om Bernie Sanders p\xc3\xa5 16 timer'
p26
aS'16 artikler p\xc3\xa5 mindre end et d\xc3\xb8gn, alle vinklet s\xc3\xa5 de stiller Bernie Sanders i et d\xc3\xa5rligt lys. Avisen bag: Washington Post'
p27
ag6
ag6
asS'nyhedsblog201603stat'
p28
(lp29
S'2016/03'
p30
aS'Status: Hvem har vundet hvor'
p31
aS'S\xc3\xa5dan ser de republikanske og demokratiske prim\xc3\xa6rvalg ud lige nu'
p32
ag6
ag6
asS'nyhedsblog201301drop'
p33
(lp34
S'2013/01'
p35
aS'Drop det frie skolevalg'
p36
aS'Det nordjyske folketingsmedlem Orla Hav vil droppe det frie skolevalg og lade b\xc3\xb8rnene g\xc3\xa5 i den lokale skole. Det vil udj\xc3\xa6vne de sociale skel, mener han'
p37
ag6
ag6
asS'nyhedsblog201603mich'
p38
(lp39
S'2016/03'
p40
aS'@MichelleObama'
p41
aS'Amerikas First Lady mestrer de sociale medier som f\xc3\xa5. Og det handler om andet og mere end at f\xc3\xa5 et lovforslag kondenseret i en GIF'
p42
ag6
ag6
asS'nyhedsblog201603kane'
p43
(lp44
S'2016/03'
p45
aS'Kan du elske denne robot?'
p46
aS'V\xc3\xa6kker menneskelignende robotter tillid eller er de creepy? Uanset hvad man mener om den sag, s\xc3\xa5 er \xe2\x80\x98Sophia\xe2\x80\x98 i hvert fald et tegn p\xc3\xa5, at vi er t\xc3\xa6ttere p\xc3\xa5 end nogensinde. '
p47
ag6
aS' "The artificial intelligence will evolve to the point where they will truly be our friends," he said. "Not in ways that dehumanize us, but in ways the rehumanize us, that decrease the trend of the distance between people and instead connect us with people as well as with robots."\xc2\xa0'
p48
asS'nyhedsblog201603faen'
p49
(lp50
S'2016/03'
p51
aS'F\xc3\xa6ngslet'
p52
aS'Portr\xc3\xa6ttegninger lavet af indsatte med motiver af virksomhedsledere, som efter kunstnernes mening, burde sidde i f\xc3\xa6ngsel i stedet'
p53
ag6
ag6
asS'nyhedsblog201603goog'
p54
(lp55
S'2016/03'
p56
aS'Google dropper roboteventyr'
p57
aS'De seneste \xc3\xa5rs mest imponerende fremskridt inden for robotteknologi er kommet fra Boston Dynamics, s\xc3\xa5 hvorfor vil Google nu s\xc3\xa6lge en virksomhed, som de k\xc3\xb8bte for blot et f\xc3\xa5 \xc3\xa5r siden? '
p58
ag6
aS' \xe2\x80\x9cThere\xe2\x80\x99s excitement from the tech press, but we\xe2\x80\x99re also starting to see some negative threads about it being terrifying, ready to take humans\xe2\x80\x99 jobs,\xe2\x80\x9d wrote Courtney Hohne, a director of communications at Google and the spokeswoman for Google X.'
p59
asS'nyhedsblog201603usai'
p60
(lp61
S'2016/03'
p62
aS'USA \xe2\x80\x93 Israel'
p63
aS'Den israelske premierminister Benjamin Netanyahus sympatier, n\xc3\xa5r det g\xc3\xa6lder amerikansk politik, ligger i reglen hos Republikanerne. Men med Donald Trumps succes har Israel f\xc3\xa5et et problem'
p64
ag6
ag6
asS'nyhedsblog201603danm'
p65
(lp66
S'2016/03'
p67
aS'I Danmark er jeg f\xc3\xb8dt, men har ikke hjemme'
p68
aS'For anden gang p\xc3\xa5 f\xc3\xa5 m\xc3\xa5neder har regeringen strammet reglerne for statsborgerskab, s\xc3\xa5 Danmark if\xc3\xb8lge en udenlandsk ekspert har den strammeste lovgivning i den vestlige verden. Det sker, selv om en r\xc3\xa6kke studier viser, at adgangen til statsborgerskab gavner integrationen'
p69
ag6
ag6
as.