(lp0
(lp1
S'test_indland.in_'
p2
aI100
aI7838
aI685
aF0.257
aF0.034
aF0.291
aa(lp3
S'venstre'
p4
aI14
aF0.0
aI29
aa(lp5
S'test_udland.in_'
p6
aI100
aI10558
aI786
aF0.29
aF0.039
aF0.329
aa(lp7
S'venstre'
p8
aI2
aF0.0
aI10
aa(lp9
S'h\xc3\xb8jre'
p10
aI2
aF0.0
aI6
aa.