(lp0
(lp1
S'indland.in_'
p2
aI8612
aI133083
aI766
aF35.525
aF3.675
aF39.201
aa(lp3
S'venstre'
p4
aI900
aF0.004
aF1.32
aI1663
aa(lp5
S'df'
p6
aI341
aF0.001
aF0.352
aI480
aa(lp7
S'alternativ'
p8
aI300
aF0.001
aF0.588
aI736
aa(lp9
S'konservative'
p10
aI119
aF0.001
aF0.16
aI109
aa(lp11
S'sf'
p12
aI763
aF0.002
aF1.227
aI1122
aa(lp13
S'udland.in_'
p14
aI5998
aI134336
aI823
aF23.32
aF2.651
aF25.971
aa(lp15
S'venstre'
p16
aI97
aF0.002
aF0.069
aI222
aa(lp17
S'df'
p18
aI18
aF0.0
aF0.017
aI32
aa(lp19
S'alternativ'
p20
aI239
aF0.001
aF0.176
aI582
aa(lp21
S'konservative'
p22
aI21
aF0.0
aF0.022
aI49
aa(lp23
S'sf'
p24
aI45
aF0.0
aF0.035
aI65
aa(lp25
S'debat.in_'
p26
aI8591
aI155080
aI767
aF32.232
aF4.291
aF36.523
aa(lp27
S'venstre'
p28
aI498
aF0.002
aF0.641
aI690
aa(lp29
S'df'
p30
aI172
aF0.001
aF0.187
aI178
aa(lp31
S'alternativ'
p32
aI430
aF0.001
aF0.486
aI969
aa(lp33
S'konservative'
p34
aI31
aF0.0
aF0.038
aI33
aa(lp35
S'sf'
p36
aI336
aF0.001
aF0.596
aI576
aa(lp37
S'kultur.in_'
p38
aI6387
aI186178
aI992
aF32.45
aF4.482
aF36.932
aa(lp39
S'venstre'
p40
aI175
aF0.001
aF0.19
aI367
aa(lp41
S'df'
p42
aI33
aF0.0
aF0.065
aI21
aa(lp43
S'alternativ'
p44
aI209
aF0.001
aF0.238
aI641
aa(lp45
S'konservative'
p46
aI9
aF0.0
aF0.011
aI13
aa(lp47
S'sf'
p48
aI50
aF0.0
aF0.072
aI51
aa.