(lp0
(lp1
S'test_data.in_'
p2
aI100
aI10913
aI803
aF0.345
aF0.042
aF0.387
aa(lp3
S'venstre'
p4
aI4
aF0.0
aF0.008
aI22
aa(lp5
S'alternativ'
p6
aI2
aF0.0
aF0.001
aI11
aa(lp7
S'konservative'
p8
aI1
aF0.0
aF0.001
aI0
aa(lp9
S'sf'
p10
aI1
aF0.0
aF0.001
aI3
aa.