(lp0
(lp1
S'test_indland.in_'
p2
aI100
aI7838
aI685
aF0.28
aF0.029
aF0.309
aa(lp3
S'venstre'
p4
aI14
aF0.0
aF0.001
aI29
aa(lp5
S'test_udland.in_'
p6
aI100
aI10558
aI786
aF0.311
aF0.039
aF0.35
aa(lp7
S'venstre'
p8
aI2
aF0.0
aF0.001
aI10
aa(lp9
S'h\xc3\xb8jre'
p10
aI2
aF0.0
aF0.001
aI6
aa.