(lp0
(lp1
S'indland.in_udland.in_debat.in_kultur.in_'
p2
aI29564
aI405182
aI813
aF2.152
aF17.306
aF19.458
aa(lp3
S'skipper'
p4
aI5
aF0.001
aI15
aa(lp5
S'enhedsliste'
p6
aI866
aF0.003
aI1821
aa(lp7
S'schmidt'
p8
aI19
aF0.0
aI69
aa(lp9
S'skippe'
p10
aI9
aF0.0
aI27
aa(lp11
S'folkeparti'
p12
aI1221
aF0.004
aI2368
aa(lp13
S'kj\xc3\xa6rsgaard'
p14
aI235
aF0.001
aI518
aa(lp15
S'skaarup'
p16
aI118
aF0.0
aI169
aa.