(lp0
(lp1
S'test_indland.in_'
p2
aI100
aI7838
aI685
aF0.257
aF0.034
aF0.291
aa(lp3
S'venstre'
p4
aI14
aF0.0
aI29
aa(lp5
S'test_udland.in_'
p6
aI100
aI10558
aI786
aF0.29
aF0.039
aF0.329
aa(lp7
S'venstre'
p8
aI2
aF0.0
aI10
aa(lp9
S'h\xc3\xb8jre'
p10
aI2
aF0.0
aI6
aa(lp11
S'test_indland.in_'
p12
aI100
aI7838
aI685
aF0.29
aF0.035
aF0.326
aa(lp13
S'venstre'
p14
aI14
aF0.0
aI29
aa(lp15
S'test_udland.in_'
p16
aI100
aI10558
aI786
aF0.326
aF0.047
aF0.374
aa(lp17
S'venstre'
p18
aI2
aF0.0
aI10
aa(lp19
S'h\xc3\xb8jre'
p20
aI2
aF0.0
aI6
aa(lp21
S'test_indland.in_'
p22
aI100
aI7838
aI685
aF0.26
aF0.036
aF0.297
aa(lp23
S'venstre'
p24
aI14
aF0.0
aI29
aa(lp25
S'test_udland.in_'
p26
aI100
aI10558
aI786
aF0.3
aF0.044
aF0.344
aa(lp27
S'venstre'
p28
aI2
aF0.0
aI10
aa(lp29
S'h\xc3\xb8jre'
p30
aI2
aF0.0
aI6
aa(lp31
S'test_indland.in_'
p32
aI100
aI7838
aI685
aF0.271
aF0.037
aF0.307
aa(lp33
S'venstre'
p34
aI14
aF0.0
aI29
aa(lp35
S'test_udland.in_'
p36
aI100
aI10558
aI786
aF0.308
aF0.049
aF0.357
aa(lp37
S'venstre'
p38
aI2
aF0.0
aI10
aa(lp39
S'h\xc3\xb8jre'
p40
aI2
aF0.0
aI6
aa(lp41
S'test_indland.in_'
p42
aI100
aI7838
aI685
aF0.282
aF0.043
aF0.326
aa(lp43
S'venstre'
p44
aI14
aF0.0
aI29
aa(lp45
S'test_udland.in_'
p46
aI100
aI10558
aI786
aF0.319
aF0.048
aF0.368
aa(lp47
S'venstre'
p48
aI2
aF0.0
aI10
aa(lp49
S'h\xc3\xb8jre'
p50
aI2
aF0.0
aI6
aa(lp51
S'test_indland.in_'
p52
aI100
aI7838
aI685
aF0.262
aF0.036
aF0.299
aa(lp53
S'venstre'
p54
aI14
aF0.0
aI29
aa(lp55
S'test_udland.in_'
p56
aI100
aI10558
aI786
aF0.308
aF0.047
aF0.355
aa(lp57
S'venstre'
p58
aI2
aF0.0
aI10
aa(lp59
S'h\xc3\xb8jre'
p60
aI2
aF0.0
aI6
aa(lp61
S'test_indland.in_'
p62
aI100
aI7838
aI685
aF0.274
aF0.036
aF0.31
aa(lp63
S'venstre'
p64
aI14
aF0.0
aI29
aa(lp65
S'test_indland.in_'
p66
aI100
aI7838
aI685
aF0.272
aF0.036
aF0.308
aa(lp67
S'venstre'
p68
aI14
aF0.0
aI29
aa(lp69
S'test_indland.in_'
p70
aI100
aI7838
aI685
aF0.283
aF0.047
aF0.331
aa(lp71
S'venstre'
p72
aI14
aF0.0
aI29
aa(lp73
S'test_udland.in_'
p74
aI100
aI10558
aI786
aF0.329
aF0.05
aF0.38
aa(lp75
S'venstre'
p76
aI2
aF0.0
aI10
aa(lp77
S'h\xc3\xb8jre'
p78
aI2
aF0.0
aI6
aa(lp79
S'test_indland.in_'
p80
aI100
aI7838
aI685
aF0.265
aF0.037
aF0.302
aa(lp81
S'venstre'
p82
aI14
aF0.0
aI29
aa(lp83
S'test_udland.in_'
p84
aI100
aI10558
aI786
aF0.303
aF0.044
aF0.347
aa(lp85
S'venstre'
p86
aI2
aF0.0
aI10
aa(lp87
S'h\xc3\xb8jre'
p88
aI2
aF0.0
aI6
aa(lp89
S'test_indland.in_'
p90
aI100
aI7838
aI685
aF0.27
aF0.042
aF0.312
aa(lp91
S'venstre'
p92
aI14
aF0.0
aI29
aa(lp93
S'test_udland.in_'
p94
aI100
aI10558
aI786
aF0.325
aF0.05
aF0.375
aa(lp95
S'venstre'
p96
aI2
aF0.0
aI10
aa(lp97
S'h\xc3\xb8jre'
p98
aI2
aF0.0
aI6
aa.