(lp0
(lp1
S'indland.in_udland.in_debat.in_kultur.in_'
p2
aI29564
aI405182
aI813
aF2.152
aF17.306
aF19.458
aa(lp3
S'skipper'
p4
aI5
aF0.001
aI15
aa(lp5
S'enhedsliste'
p6
aI866
aF0.003
aI1821
aa(lp7
S'schmidt'
p8
aI19
aF0.0
aI69
aa(lp9
S'skippe'
p10
aI9
aF0.0
aI27
aa(lp11
S'folkeparti'
p12
aI1221
aF0.004
aI2368
aa(lp13
S'kj\xc3\xa6rsgaard'
p14
aI235
aF0.001
aI518
aa(lp15
S'skaarup'
p16
aI118
aF0.0
<<<<<<< HEAD
aI169
=======
aI6
aa(lp109
S'test_indland.in_'
p110
aI100
aI7838
aI685
aF0.268
aF0.034
aF0.302
aa(lp111
S'venstre'
p112
aI14
aF0.0
aI29
aa(lp113
S'test_udland.in_'
p114
aI100
aI10558
aI786
aF0.302
aF0.047
aF0.349
aa(lp115
S'venstre'
p116
aI2
aF0.0
aI10
aa(lp117
S'h\xc3\xb8jre'
p118
aI2
aF0.0
aI6
aa(lp119
S'test_indland.in_'
p120
aI100
aI7838
aI685
aF0.265
aF0.032
aF0.298
aa(lp121
S'venstre'
p122
aI14
aF0.0
aI29
aa(lp123
S'test_udland.in_'
p124
aI100
aI10558
aI786
aF0.298
aF0.046
aF0.345
aa(lp125
S'venstre'
p126
aI2
aF0.0
aI10
aa(lp127
S'h\xc3\xb8jre'
p128
aI2
aF0.0
aI6
aa(lp129
S'test_indland.in_'
p130
aI100
aI7838
aI685
aF0.258
aF0.032
aF0.291
aa(lp131
S'venstre'
p132
aI14
aF0.0
aI29
aa(lp133
S'test_udland.in_'
p134
aI100
aI10558
aI786
aF0.297
aF0.049
aF0.346
aa(lp135
S'venstre'
p136
aI2
aF0.0
aI10
aa(lp137
S'h\xc3\xb8jre'
p138
aI2
aF0.0
aI6
aa(lp139
S'test_indland.in_'
p140
aI100
aI7838
aI685
aF0.264
aF0.031
aF0.295
aa(lp141
S'venstre'
p142
aI14
aF0.0
aI29
aa(lp143
S'test_udland.in_'
p144
aI100
aI10558
aI786
aF0.302
aF0.05
aF0.352
aa(lp145
S'venstre'
p146
aI2
aF0.0
aI10
aa(lp147
S'h\xc3\xb8jre'
p148
aI2
aF0.0
aI6
aa(lp149
S'test_indland.in_'
p150
aI100
aI7838
aI685
aF0.257
aF0.033
aF0.291
aa(lp151
S'venstre'
p152
aI14
aF0.0
aI29
aa(lp153
S'test_udland.in_'
p154
aI100
aI10558
aI786
aF0.302
aF0.047
aF0.349
aa(lp155
S'venstre'
p156
aI2
aF0.0
aI10
aa(lp157
S'h\xc3\xb8jre'
p158
aI2
aF0.0
aI6
aa(lp159
S'test_indland.in_'
p160
aI100
aI7838
aI685
aF0.264
aF0.033
aF0.296
aa(lp161
S'venstre'
p162
aI14
aF0.0
aI29
aa(lp163
S'test_udland.in_'
p164
aI100
aI10558
aI786
aF0.315
aF0.049
aF0.364
aa(lp165
S'venstre'
p166
aI2
aF0.0
aI10
aa(lp167
S'h\xc3\xb8jre'
p168
aI2
aF0.0
aI6
aa(lp169
S'test_indland.in_'
p170
aI100
aI7838
aI685
aF0.257
aF0.033
aF0.29
aa(lp171
S'venstre'
p172
aI14
aF0.0
aI29
aa(lp173
S'test_udland.in_'
p174
aI100
aI10558
aI786
aF0.303
aF0.047
aF0.35
aa(lp175
S'venstre'
p176
aI2
aF0.0
aI10
aa(lp177
S'h\xc3\xb8jre'
p178
aI2
aF0.0
aI6
aa(lp179
S'test_indland.in_'
p180
aI100
aI7838
aI685
aF0.257
aF0.032
aF0.289
aa(lp181
S'venstre'
p182
aI14
aF0.0
aI29
aa(lp183
S'test_udland.in_'
p184
aI100
aI10558
aI786
aF0.362
aF0.047
aF0.409
aa(lp185
S'venstre'
p186
aI2
aF0.0
aI10
aa(lp187
S'h\xc3\xb8jre'
p188
aI2
aF0.0
aI6
aa(lp189
S'test_indland.in_'
p190
aI100
aI7838
aI685
aF0.257
aF0.042
aF0.299
aa(lp191
S'venstre'
p192
aI14
aF0.0
aI29
aa(lp193
S'test_udland.in_'
p194
aI100
aI10558
aI786
aF0.289
aF0.05
aF0.34
aa(lp195
S'venstre'
p196
aI2
aF0.0
aI10
aa(lp197
S'h\xc3\xb8jre'
p198
aI2
aF0.0
aI6
aa(lp199
S'test_indland.in_'
p200
aI100
aI7838
aI685
aF0.285
aF0.048
aF0.333
aa(lp201
S'venstre'
p202
aI14
aF0.003
aI29
aa(lp203
S'test_udland.in_'
p204
aI100
aI10558
aI786
aF0.318
aF0.05
aF0.368
aa(lp205
S'venstre'
p206
aI2
aF0.0
aI10
aa(lp207
S'h\xc3\xb8jre'
p208
aI2
aF0.0
aI6
aa(lp209
S'debat.in_'
p210
aI8591
aI152781
aI743
aF21.604
aF4.489
aF26.093
aa(lp211
S'venstre'
p212
aI481
aF0.002
aI633
aa(lp213
S'h\xc3\xb8jre'
p214
aI132
aF0.001
aI230
aa(lp215
S'debat.in_'
p216
aI8591
aI152781
aI743
aF0.509
aF4.436
aF4.945
aa(lp217
S'venstre'
p218
aI481
aF0.002
aI633
aa(lp219
S'h\xc3\xb8jre'
p220
aI132
aF0.001
aI230
aa(lp221
S'debat.in_'
p222
aI8591
aI152781
aI743
aF0.544
aF4.157
aF4.701
aa(lp223
S'venstre'
p224
aI481
aF0.002
aI633
aa(lp225
S'h\xc3\xb8jre'
p226
aI132
aF0.001
aI230
aa(lp227
S'debat.in_'
p228
aI8591
aI152781
aI743
aF0.521
aF4.105
aF4.625
aa(lp229
S'venstre'
p230
aI481
aF0.002
aI633
aa(lp231
S'h\xc3\xb8jre'
p232
aI132
aF0.0
aI230
aa(lp233
S'debat.in_'
p234
aI8591
aI152781
aI743
aF0.539
aF4.165
aF4.704
aa(lp235
S'venstre'
p236
aI481
aF0.002
aI633
aa(lp237
S'h\xc3\xb8jre'
p238
aI132
aF0.0
aI230
>>>>>>> 8f47c493219831c99e7452ef3a70a16044ec324e
aa.