(dp0
S'75750.txt'
p1
I128
sS'75745.txt'
p2
I124
sS'75757.txt'
p3
I135
sS'75747.txt'
p4
I207
sS'75744.txt'
p5
I193
sS'75760.txt'
p6
I43
sS'75743.txt'
p7
I221
sS'75742.txt'
p8
I75
sS'75749.txt'
p9
I236
sS'75758.txt'
p10
I58
sS'75748.txt'
p11
I246
sS'75751.txt'
p12
I96
sS'75759.txt'
p13
I52
sS'75752.txt'
p14
I67
sS'75754.txt'
p15
I424
sS'75741.txt'
p16
I67
sS'75746.txt'
p17
I189
sS'75753.txt'
p18
I94
sS'75755.txt'
p19
I86
sS'75756.txt'
p20
I157
s.