(dp0
S'80067.txt'
p1
I96
sS'75754.txt'
p2
I424
sS'77126.txt'
p3
I64
sS'80300.txt'
p4
I209
sS'78527.txt'
p5
I204
sS'76167.txt'
p6
I119
sS'76075.txt'
p7
I131
sS'78998.txt'
p8
I69
sS'77602.txt'
p9
I73
sS'77072.txt'
p10
I186
sS'76572.txt'
p11
I128
sS'76173.txt'
p12
I55
sS'76175.txt'
p13
I67
sS'76599.txt'
p14
I76
sS'77767.txt'
p15
I94
sS'75876.txt'
p16
I186
sS'81330.txt'
p17
I76
sS'79836.txt'
p18
I148
sS'77461.txt'
p19
I171
sS'78274.txt'
p20
I168
sS'75986.txt'
p21
I101
sS'76425.txt'
p22
I274
sS'81573.txt'
p23
I127
sS'75784.txt'
p24
I143
sS'77124.txt'
p25
I378
sS'80119.txt'
p26
I145
sS'78740.txt'
p27
I107
sS'75899.txt'
p28
I87
sS'78359.txt'
p29
I62
sS'81473.txt'
p30
I60
sS'79107.txt'
p31
I353
sS'79988.txt'
p32
I255
sS'76028.txt'
p33
I89
sS'80610.txt'
p34
I86
sS'78625.txt'
p35
I84
sS'79385.txt'
p36
I152
sS'78055.txt'
p37
I68
sS'81318.txt'
p38
I353
sS'80433.txt'
p39
I158
sS'79148.txt'
p40
I160
sS'76520.txt'
p41
I97
sS'77217.txt'
p42
I66
sS'81121.txt'
p43
I55
sS'80099.txt'
p44
I99
sS'77665.txt'
p45
I140
sS'80510.txt'
p46
I100
sS'76974.txt'
p47
I205
sS'78392.txt'
p48
I61
sS'81440.txt'
p49
I258
sS'78442.txt'
p50
I41
sS'77116.txt'
p51
I307
sS'76755.txt'
p52
I63
sS'78872.txt'
p53
I83
sS'80585.txt'
p54
I71
sS'80061.txt'
p55
I112
sS'77024.txt'
p56
I53
sS'79778.txt'
p57
I305
sS'79026.txt'
p58
I66
sS'76535.txt'
p59
I59
sS'75909.txt'
p60
I594
sS'79584.txt'
p61
I318
sS'78318.txt'
p62
I116
sS'79335.txt'
p63
I108
sS'76606.txt'
p64
I55
sS'80415.txt'
p65
I330
sS'76230.txt'
p66
I303
sS'81190.txt'
p67
I66
sS'76676.txt'
p68
I379
sS'79652.txt'
p69
I94
sS'76744.txt'
p70
I150
sS'76735.txt'
p71
I240
sS'77803.txt'
p72
I268
sS'80109.txt'
p73
I347
sS'77477.txt'
p74
I96
sS'77380.txt'
p75
I252
sS'78861.txt'
p76
I69
sS'80801.txt'
p77
I133
sS'80647.txt'
p78
I47
sS'81499.txt'
p79
I462
sS'78937.txt'
p80
I160
sS'76514.txt'
p81
I85
sS'80579.txt'
p82
I157
sS'76415.txt'
p83
I199
sS'78562.txt'
p84
I51
sS'81550.txt'
p85
I118
sS'77149.txt'
p86
I55
sS'80152.txt'
p87
I229
sS'81044.txt'
p88
I89
sS'78223.txt'
p89
I189
sS'81380.txt'
p90
I99
sS'76328.txt'
p91
I84
sS'80660.txt'
p92
I83
sS'76219.txt'
p93
I142
sS'81291.txt'
p94
I157
sS'78067.txt'
p95
I47
sS'81611.txt'
p96
I89
sS'79435.txt'
p97
I163
sS'77283.txt'
p98
I142
sS'76944.txt'
p99
I213
sS'78302.txt'
p100
I263
sS'76595.txt'
p101
I232
sS'76065.txt'
p102
I169
sS'78900.txt'
p103
I280
sS'80210.txt'
p104
I60
sS'77229.txt'
p105
I347
sS'78890.txt'
p106
I55
sS'78729.txt'
p107
I360
sS'79736.txt'
p108
I66
sS'76887.txt'
p109
I94
sS'77278.txt'
p110
I87
sS'80555.txt'
p111
I170
sS'80795.txt'
p112
I102
sS'80148.txt'
p113
I95
sS'78180.txt'
p114
I55
sS'79996.txt'
p115
I67
sS'76282.txt'
p116
I113
sS'80779.txt'
p117
I131
sS'76817.txt'
p118
I307
sS'77663.txt'
p119
I286
sS'79684.txt'
p120
I67
sS'80991.txt'
p121
I82
sS'76228.txt'
p122
I82
sS'76026.txt'
p123
I67
sS'78283.txt'
p124
I88
sS'79751.txt'
p125
I98
sS'76937.txt'
p126
I124
sS'81316.txt'
p127
I180
sS'77842.txt'
p128
I222
sS'79109.txt'
p129
I84
sS'76596.txt'
p130
I155
sS'79983.txt'
p131
I143
sS'77868.txt'
p132
I50
sS'80834.txt'
p133
I174
sS'77759.txt'
p134
I68
sS'75959.txt'
p135
I138
sS'76569.txt'
p136
I83
sS'80332.txt'
p137
I193
sS'79196.txt'
p138
I69
sS'79947.txt'
p139
I79
sS'76449.txt'
p140
I68
sS'77386.txt'
p141
I90
sS'77915.txt'
p142
I190
sS'80817.txt'
p143
I156
sS'78909.txt'
p144
I188
sS'77053.txt'
p145
I86
sS'80287.txt'
p146
I101
sS'79570.txt'
p147
I77
sS'77943.txt'
p148
I328
sS'79472.txt'
p149
I100
sS'77879.txt'
p150
I150
sS'80308.txt'
p151
I141
sS'81075.txt'
p152
I742
sS'75938.txt'
p153
I103
sS'78158.txt'
p154
I259
sS'81390.txt'
p155
I113
sS'76478.txt'
p156
I130
sS'76308.txt'
p157
I78
sS'81447.txt'
p158
I94
sS'80357.txt'
p159
I188
sS'76665.txt'
p160
I76
sS'78088.txt'
p161
I88
sS'76435.txt'
p162
I43
sS'78759.txt'
p163
I352
sS'77788.txt'
p164
I74
sS'78286.txt'
p165
I83
sS'79378.txt'
p166
I107
sS'78664.txt'
p167
I255
sS'78983.txt'
p168
I43
sS'76156.txt'
p169
I198
sS'77631.txt'
p170
I259
sS'79077.txt'
p171
I75
sS'76473.txt'
p172
I95
sS'78835.txt'
p173
I355
sS'81336.txt'
p174
I136
sS'78241.txt'
p175
I61
sS'79301.txt'
p176
I46
sS'79980.txt'
p177
I56
sS'79307.txt'
p178
I193
sS'79845.txt'
p179
I276
sS'79964.txt'
p180
I168
sS'77722.txt'
p181
I67
sS'78357.txt'
p182
I48
sS'77159.txt'
p183
I85
sS'79892.txt'
p184
I117
sS'78730.txt'
p185
I98
sS'77227.txt'
p186
I311
sS'81230.txt'
p187
I469
sS'76357.txt'
p188
I101
sS'80528.txt'
p189
I67
sS'77628.txt'
p190
I197
sS'80005.txt'
p191
I59
sS'80382.txt'
p192
I88
sS'77903.txt'
p193
I64
sS'79289.txt'
p194
I172
sS'77140.txt'
p195
I86
sS'76342.txt'
p196
I49
sS'78720.txt'
p197
I195
sS'78136.txt'
p198
I95
sS'81141.txt'
p199
I81
sS'80448.txt'
p200
I63
sS'76718.txt'
p201
I157
sS'76834.txt'
p202
I67
sS'76267.txt'
p203
I210
sS'81600.txt'
p204
I103
sS'80437.txt'
p205
I79
sS'78882.txt'
p206
I58
sS'79758.txt'
p207
I70
sS'77749.txt'
p208
I166
sS'77075.txt'
p209
I104
sS'75957.txt'
p210
I157
sS'76202.txt'
p211
I123
sS'77671.txt'
p212
I64
sS'80083.txt'
p213
I75
sS'76496.txt'
p214
I127
sS'77529.txt'
p215
I207
sS'78875.txt'
p216
I90
sS'80388.txt'
p217
I183
sS'78475.txt'
p218
I80
sS'81143.txt'
p219
I75
sS'79252.txt'
p220
I94
sS'80744.txt'
p221
I403
sS'77376.txt'
p222
I232
sS'75802.txt'
p223
I234
sS'81104.txt'
p224
I201
sS'77375.txt'
p225
I85
sS'81583.txt'
p226
I124
sS'76352.txt'
p227
I372
sS'78507.txt'
p228
I318
sS'79338.txt'
p229
I55
sS'76222.txt'
p230
I90
sS'76962.txt'
p231
I151
sS'76483.txt'
p232
I50
sS'77712.txt'
p233
I70
sS'79595.txt'
p234
I191
sS'78964.txt'
p235
I281
sS'79948.txt'
p236
I183
sS'76610.txt'
p237
I205
sS'80580.txt'
p238
I122
sS'78551.txt'
p239
I88
sS'77032.txt'
p240
I99
sS'77426.txt'
p241
I572
sS'76532.txt'
p242
I97
sS'78621.txt'
p243
I93
sS'80075.txt'
p244
I287
sS'76909.txt'
p245
I89
sS'79044.txt'
p246
I147
sS'78824.txt'
p247
I52
sS'78162.txt'
p248
I91
sS'76135.txt'
p249
I68
sS'78441.txt'
p250
I143
sS'76168.txt'
p251
I93
sS'80603.txt'
p252
I165
sS'76691.txt'
p253
I56
sS'79415.txt'
p254
I175
sS'79617.txt'
p255
I63
sS'79557.txt'
p256
I74
sS'80274.txt'
p257
I451
sS'76659.txt'
p258
I271
sS'79012.txt'
p259
I71
sS'76938.txt'
p260
I56
sS'78321.txt'
p261
I59
sS'80861.txt'
p262
I149
sS'78866.txt'
p263
I244
sS'80774.txt'
p264
I278
sS'76123.txt'
p265
I95
sS'81294.txt'
p266
I153
sS'76581.txt'
p267
I90
sS'80688.txt'
p268
I63
sS'80640.txt'
p269
I229
sS'76759.txt'
p270
I239
sS'78700.txt'
p271
I51
sS'76843.txt'
p272
I198
sS'78525.txt'
p273
I104
sS'81038.txt'
p274
I94
sS'79802.txt'
p275
I89
sS'79748.txt'
p276
I232
sS'80276.txt'
p277
I261
sS'78473.txt'
p278
I95
sS'77876.txt'
p279
I153
sS'81089.txt'
p280
I110
sS'77322.txt'
p281
I89
sS'78586.txt'
p282
I102
sS'79898.txt'
p283
I419
sS'79784.txt'
p284
I79
sS'78384.txt'
p285
I154
sS'80863.txt'
p286
I149
sS'76997.txt'
p287
I288
sS'77806.txt'
p288
I62
sS'81588.txt'
p289
I117
sS'80105.txt'
p290
I65
sS'79818.txt'
p291
I196
sS'79929.txt'
p292
I101
sS'77999.txt'
p293
I85
sS'78131.txt'
p294
I74
sS'78567.txt'
p295
I75
sS'77193.txt'
p296
I95
sS'76883.txt'
p297
I126
sS'76690.txt'
p298
I214
sS'78255.txt'
p299
I61
sS'79013.txt'
p300
I304
sS'80960.txt'
p301
I52
sS'76296.txt'
p302
I82
sS'81430.txt'
p303
I101
sS'79368.txt'
p304
I183
sS'80833.txt'
p305
I298
sS'79752.txt'
p306
I152
sS'76948.txt'
p307
I361
sS'81070.txt'
p308
I79
sS'76681.txt'
p309
I75
sS'78952.txt'
p310
I104
sS'79718.txt'
p311
I211
sS'78304.txt'
p312
I195
sS'81020.txt'
p313
I133
sS'78699.txt'
p314
I76
sS'75996.txt'
p315
I50
sS'78996.txt'
p316
I251
sS'78648.txt'
p317
I211
sS'79861.txt'
p318
I90
sS'77627.txt'
p319
I184
sS'78432.txt'
p320
I91
sS'81518.txt'
p321
I104
sS'80635.txt'
p322
I188
sS'76367.txt'
p323
I208
sS'80758.txt'
p324
I177
sS'79969.txt'
p325
I320
sS'77560.txt'
p326
I66
sS'81313.txt'
p327
I255
sS'76072.txt'
p328
I56
sS'78072.txt'
p329
I96
sS'77756.txt'
p330
I70
sS'80474.txt'
p331
I85
sS'80205.txt'
p332
I84
sS'78204.txt'
p333
I55
sS'77005.txt'
p334
I584
sS'77026.txt'
p335
I244
sS'80496.txt'
p336
I175
sS'79650.txt'
p337
I184
sS'76320.txt'
p338
I115
sS'76917.txt'
p339
I91
sS'79499.txt'
p340
I70
sS'78618.txt'
p341
I268
sS'76588.txt'
p342
I87
sS'76030.txt'
p343
I96
sS'77684.txt'
p344
I55
sS'78417.txt'
p345
I152
sS'76710.txt'
p346
I531
sS'80912.txt'
p347
I187
sS'81134.txt'
p348
I195
sS'75870.txt'
p349
I56
sS'79199.txt'
p350
I332
sS'78980.txt'
p351
I90
sS'77469.txt'
p352
I225
sS'81337.txt'
p353
I60
sS'78246.txt'
p354
I162
sS'78844.txt'
p355
I75
sS'78508.txt'
p356
I299
sS'81197.txt'
p357
I91
sS'75789.txt'
p358
I53
sS'76682.txt'
p359
I98
sS'77301.txt'
p360
I97
sS'78592.txt'
p361
I105
sS'76301.txt'
p362
I76
sS'77815.txt'
p363
I83
sS'77255.txt'
p364
I92
sS'78801.txt'
p365
I308
sS'76918.txt'
p366
I137
sS'79089.txt'
p367
I60
sS'81373.txt'
p368
I216
sS'77256.txt'
p369
I188
sS'78142.txt'
p370
I149
sS'76077.txt'
p371
I104
sS'79454.txt'
p372
I113
sS'79953.txt'
p373
I89
sS'77186.txt'
p374
I185
sS'81353.txt'
p375
I142
sS'77992.txt'
p376
I90
sS'78674.txt'
p377
I66
sS'79071.txt'
p378
I254
sS'77765.txt'
p379
I171
sS'78724.txt'
p380
I132
sS'77463.txt'
p381
I205
sS'77691.txt'
p382
I155
sS'78990.txt'
p383
I95
sS'78469.txt'
p384
I91
sS'80030.txt'
p385
I70
sS'76166.txt'
p386
I128
sS'77328.txt'
p387
I358
sS'80000.txt'
p388
I61
sS'80869.txt'
p389
I105
sS'79347.txt'
p390
I82
sS'79230.txt'
p391
I262
sS'81471.txt'
p392
I64
sS'79113.txt'
p393
I117
sS'80612.txt'
p394
I162
sS'80193.txt'
p395
I350
sS'81144.txt'
p396
I232
sS'77369.txt'
p397
I149
sS'79470.txt'
p398
I75
sS'80111.txt'
p399
I81
sS'80890.txt'
p400
I248
sS'76612.txt'
p401
I207
sS'77604.txt'
p402
I56
sS'81536.txt'
p403
I244
sS'78466.txt'
p404
I675
sS'76992.txt'
p405
I138
sS'78050.txt'
p406
I89
sS'78390.txt'
p407
I93
sS'76895.txt'
p408
I147
sS'78963.txt'
p409
I94
sS'76512.txt'
p410
I230
sS'75952.txt'
p411
I570
sS'80227.txt'
p412
I248
sS'81011.txt'
p413
I73
sS'80587.txt'
p414
I147
sS'81042.txt'
p415
I248
sS'78878.txt'
p416
I56
sS'81287.txt'
p417
I50
sS'78666.txt'
p418
I83
sS'77991.txt'
p419
I146
sS'76604.txt'
p420
I93
sS'76598.txt'
p421
I161
sS'80113.txt'
p422
I86
sS'78594.txt'
p423
I124
sS'77508.txt'
p424
I264
sS'77883.txt'
p425
I345
sS'78829.txt'
p426
I244
sS'79033.txt'
p427
I211
sS'76674.txt'
p428
I90
sS'78564.txt'
p429
I119
sS'80553.txt'
p430
I199
sS'79581.txt'
p431
I43
sS'78863.txt'
p432
I340
sS'78343.txt'
p433
I52
sS'80516.txt'
p434
I141
sS'75833.txt'
p435
I147
sS'80803.txt'
p436
I187
sS'81453.txt'
p437
I140
sS'79151.txt'
p438
I128
sS'78851.txt'
p439
I229
sS'78705.txt'
p440
I254
sS'81155.txt'
p441
I189
sS'79501.txt'
p442
I84
sS'78624.txt'
p443
I416
sS'79057.txt'
p444
I57
sS'78787.txt'
p445
I60
sS'80622.txt'
p446
I205
sS'78838.txt'
p447
I117
sS'78094.txt'
p448
I66
sS'76825.txt'
p449
I287
sS'80945.txt'
p450
I152
sS'80288.txt'
p451
I65
sS'81388.txt'
p452
I247
sS'78408.txt'
p453
I277
sS'80212.txt'
p454
I56
sS'81083.txt'
p455
I385
sS'76582.txt'
p456
I100
sS'76285.txt'
p457
I606
sS'79923.txt'
p458
I144
sS'80271.txt'
p459
I258
sS'78447.txt'
p460
I86
sS'81284.txt'
p461
I51
sS'76389.txt'
p462
I436
sS'76815.txt'
p463
I50
sS'77829.txt'
p464
I202
sS'78785.txt'
p465
I44
sS'76694.txt'
p466
I41
sS'77967.txt'
p467
I76
sS'81204.txt'
p468
I80
sS'78003.txt'
p469
I145
sS'79771.txt'
p470
I244
sS'77681.txt'
p471
I186
sS'81396.txt'
p472
I117
sS'81068.txt'
p473
I100
sS'76024.txt'
p474
I151
sS'77012.txt'
p475
I254
sS'76151.txt'
p476
I75
sS'76640.txt'
p477
I208
sS'81096.txt'
p478
I149
sS'80980.txt'
p479
I212
sS'80351.txt'
p480
I305
sS'80202.txt'
p481
I88
sS'81614.txt'
p482
I86
sS'77792.txt'
p483
I265
sS'77698.txt'
p484
I60
sS'77673.txt'
p485
I70
sS'78839.txt'
p486
I382
sS'81195.txt'
p487
I92
sS'80198.txt'
p488
I100
sS'79575.txt'
p489
I73
sS'76210.txt'
p490
I87
sS'76063.txt'
p491
I108
sS'77917.txt'
p492
I244
sS'76143.txt'
p493
I61
sS'81356.txt'
p494
I67
sS'79683.txt'
p495
I75
sS'76184.txt'
p496
I201
sS'78218.txt'
p497
I76
sS'78737.txt'
p498
I91
sS'77941.txt'
p499
I74
sS'76441.txt'
p500
I55
sS'78066.txt'
p501
I132
sS'76138.txt'
p502
I640
sS'81259.txt'
p503
I62
sS'79705.txt'
p504
I46
sS'80620.txt'
p505
I50
sS'81208.txt'
p506
I145
sS'78303.txt'
p507
I55
sS'81001.txt'
p508
I59
sS'75896.txt'
p509
I148
sS'81605.txt'
p510
I49
sS'78901.txt'
p511
I289
sS'79789.txt'
p512
I292
sS'78811.txt'
p513
I163
sS'81496.txt'
p514
I54
sS'78139.txt'
p515
I87
sS'79537.txt'
p516
I306
sS'81523.txt'
p517
I57
sS'81425.txt'
p518
I67
sS'78181.txt'
p519
I163
sS'76730.txt'
p520
I97
sS'77736.txt'
p521
I92
sS'79189.txt'
p522
I53
sS'77530.txt'
p523
I97
sS'76637.txt'
p524
I67
sS'76439.txt'
p525
I96
sS'77533.txt'
p526
I274
sS'78503.txt'
p527
I450
sS'76154.txt'
p528
I56
sS'80911.txt'
p529
I215
sS'80390.txt'
p530
I121
sS'77119.txt'
p531
I92
sS'76667.txt'
p532
I192
sS'77478.txt'
p533
I246
sS'78243.txt'
p534
I54
sS'79982.txt'
p535
I171
sS'78757.txt'
p536
I212
sS'79754.txt'
p537
I227
sS'78631.txt'
p538
I324
sS'80690.txt'
p539
I57
sS'78271.txt'
p540
I97
sS'81202.txt'
p541
I138
sS'77291.txt'
p542
I263
sS'79946.txt'
p543
I71
sS'78044.txt'
p544
I81
sS'79478.txt'
p545
I102
sS'76254.txt'
p546
I338
sS'80423.txt'
p547
I160
sS'79310.txt'
p548
I55
sS'81437.txt'
p549
I130
sS'80085.txt'
p550
I222
sS'77889.txt'
p551
I73
sS'81232.txt'
p552
I201
sS'80243.txt'
p553
I75
sS'78496.txt'
p554
I94
sS'79840.txt'
p555
I125
sS'80471.txt'
p556
I100
sS'79202.txt'
p557
I214
sS'81362.txt'
p558
I55
sS'79034.txt'
p559
I252
sS'81346.txt'
p560
I132
sS'77539.txt'
p561
I231
sS'80282.txt'
p562
I449
sS'76698.txt'
p563
I168
sS'81510.txt'
p564
I79
sS'77352.txt'
p565
I81
sS'80520.txt'
p566
I244
sS'76359.txt'
p567
I117
sS'76771.txt'
p568
I232
sS'75890.txt'
p569
I51
sS'76804.txt'
p570
I438
sS'81613.txt'
p571
I103
sS'76506.txt'
p572
I100
sS'79125.txt'
p573
I64
sS'78645.txt'
p574
I72
sS'78480.txt'
p575
I83
sS'78823.txt'
p576
I127
sS'77572.txt'
p577
I169
sS'80488.txt'
p578
I235
sS'79379.txt'
p579
I38
sS'75875.txt'
p580
I179
sS'80164.txt'
p581
I150
sS'77871.txt'
p582
I105
sS'79950.txt'
p583
I142
sS'79076.txt'
p584
I67
sS'80312.txt'
p585
I73
sS'80783.txt'
p586
I244
sS'76631.txt'
p587
I203
sS'79558.txt'
p588
I67
sS'78986.txt'
p589
I88
sS'81640.txt'
p590
I90
sS'78800.txt'
p591
I151
sS'76749.txt'
p592
I118
sS'80571.txt'
p593
I146
sS'81553.txt'
p594
I591
sS'80522.txt'
p595
I89
sS'77823.txt'
p596
I193
sS'78187.txt'
p597
I91
sS'81439.txt'
p598
I67
sS'80041.txt'
p599
I266
sS'77377.txt'
p600
I43
sS'76570.txt'
p601
I55
sS'77568.txt'
p602
I215
sS'80746.txt'
p603
I220
sS'80818.txt'
p604
I67
sS'78627.txt'
p605
I74
sS'76960.txt'
p606
I89
sS'78482.txt'
p607
I86
sS'78966.txt'
p608
I59
sS'76646.txt'
p609
I39
sS'78400.txt'
p610
I103
sS'76930.txt'
p611
I93
sS'80431.txt'
p612
I112
sS'75796.txt'
p613
I75
sS'80702.txt'
p614
I136
sS'79897.txt'
p615
I294
sS'78370.txt'
p616
I169
sS'78553.txt'
p617
I115
sS'80769.txt'
p618
I252
sS'78932.txt'
p619
I262
sS'77885.txt'
p620
I54
sS'81344.txt'
p621
I86
sS'79444.txt'
p622
I65
sS'78721.txt'
p623
I56
sS'81111.txt'
p624
I110
sS'79630.txt'
p625
I399
sS'78513.txt'
p626
I314
sS'79643.txt'
p627
I95
sS'75975.txt'
p628
I75
sS'77447.txt'
p629
I244
sS'79940.txt'
p630
I76
sS'79699.txt'
p631
I155
sS'80888.txt'
p632
I83
sS'79536.txt'
p633
I456
sS'76821.txt'
p634
I169
sS'79875.txt'
p635
I75
sS'81524.txt'
p636
I79
sS'80999.txt'
p637
I99
sS'75878.txt'
p638
I76
sS'80601.txt'
p639
I94
sS'78115.txt'
p640
I296
sS'76896.txt'
p641
I97
sS'76802.txt'
p642
I177
sS'80114.txt'
p643
I88
sS'77309.txt'
p644
I78
sS'76309.txt'
p645
I113
sS'79912.txt'
p646
I84
sS'77862.txt'
p647
I80
sS'81099.txt'
p648
I55
sS'81279.txt'
p649
I94
sS'79696.txt'
p650
I164
sS'77963.txt'
p651
I92
sS'79220.txt'
p652
I242
sS'79793.txt'
p653
I77
sS'81240.txt'
p654
I72
sS'76121.txt'
p655
I201
sS'77473.txt'
p656
I335
sS'78253.txt'
p657
I52
sS'78194.txt'
p658
I159
sS'76368.txt'
p659
I56
sS'80938.txt'
p660
I295
sS'81238.txt'
p661
I86
sS'81602.txt'
p662
I91
sS'79456.txt'
p663
I60
sS'78346.txt'
p664
I75
sS'80188.txt'
p665
I149
sS'78819.txt'
p666
I49
sS'78340.txt'
p667
I67
sS'81489.txt'
p668
I163
sS'77874.txt'
p669
I105
sS'75934.txt'
p670
I109
sS'80704.txt'
p671
I234
sS'78386.txt'
p672
I123
sS'81269.txt'
p673
I88
sS'77804.txt'
p674
I168
sS'79637.txt'
p675
I96
sS'76885.txt'
p676
I67
sS'76400.txt'
p677
I37
sS'79791.txt'
p678
I93
sS'78163.txt'
p679
I79
sS'75819.txt'
p680
I35
sS'80126.txt'
p681
I243
sS'79713.txt'
p682
I218
sS'78440.txt'
p683
I71
sS'75773.txt'
p684
I35
sS'76559.txt'
p685
I84
sS'75758.txt'
p686
I58
sS'78972.txt'
p687
I400
sS'79000.txt'
p688
I64
sS'80898.txt'
p689
I130
sS'75925.txt'
p690
I461
sS'78782.txt'
p691
I124
sS'81292.txt'
p692
I337
sS'79414.txt'
p693
I208
sS'79604.txt'
p694
I157
sS'77615.txt'
p695
I2245
sS'77101.txt'
p696
I271
sS'76750.txt'
p697
I59
sS'77028.txt'
p698
I179
sS'79381.txt'
p699
I95
sS'77732.txt'
p700
I234
sS'77102.txt'
p701
I260
sS'81465.txt'
p702
I140
sS'78212.txt'
p703
I55
sS'81558.txt'
p704
I113
sS'76269.txt'
p705
I385
sS'77011.txt'
p706
I266
sS'78306.txt'
p707
I91
sS'79081.txt'
p708
I104
sS'78238.txt'
p709
I90
sS'79222.txt'
p710
I302
sS'75994.txt'
p711
I263
sS'76584.txt'
p712
I165
sS'78712.txt'
p713
I53
sS'78352.txt'
p714
I111
sS'77625.txt'
p715
I110
sS'79803.txt'
p716
I208
sS'78192.txt'
p717
I102
sS'80364.txt'
p718
I317
sS'79273.txt'
p719
I107
sS'76987.txt'
p720
I40
sS'78881.txt'
p721
I286
sS'77562.txt'
p722
I409
sS'81311.txt'
p723
I107
sS'78575.txt'
p724
I157
sS'80354.txt'
p725
I204
sS'78488.txt'
p726
I292
sS'77181.txt'
p727
I98
sS'80786.txt'
p728
I77
sS'78229.txt'
p729
I150
sS'76655.txt'
p730
I311
sS'76484.txt'
p731
I54
sS'77327.txt'
p732
I452
sS'80494.txt'
p733
I140
sS'77108.txt'
p734
I101
sS'80050.txt'
p735
I206
sS'81419.txt'
p736
I66
sS'81576.txt'
p737
I232
sS'75926.txt'
p738
I133
sS'80248.txt'
p739
I55
sS'79938.txt'
p740
I195
sS'75775.txt'
p741
I82
sS'76032.txt'
p742
I34
sS'76941.txt'
p743
I103
sS'77406.txt'
p744
I193
sS'79028.txt'
p745
I87
sS'78788.txt'
p746
I64
sS'78545.txt'
p747
I74
sS'77495.txt'
p748
I55
sS'79216.txt'
p749
I204
sS'78179.txt'
p750
I229
sS'79730.txt'
p751
I83
sS'80292.txt'
p752
I85
sS'80069.txt'
p753
I289
sS'80240.txt'
p754
I55
sS'80038.txt'
p755
I66
sS'79753.txt'
p756
I63
sS'78290.txt'
p757
I191
sS'77138.txt'
p758
I267
sS'76756.txt'
p759
I252
sS'77435.txt'
p760
I291
sS'76381.txt'
p761
I192
sS'81411.txt'
p762
I228
sS'76680.txt'
p763
I90
sS'81615.txt'
p764
I85
sS'79673.txt'
p765
I74
sS'81132.txt'
p766
I209
sS'80452.txt'
p767
I60
sS'78968.txt'
p768
I379
sS'80734.txt'
p769
I94
sS'75798.txt'
p770
I145
sS'77254.txt'
p771
I95
sS'77847.txt'
p772
I244
sS'81079.txt'
p773
I89
sS'80737.txt'
p774
I86
sS'78722.txt'
p775
I55
sS'78939.txt'
p776
I76
sS'80359.txt'
p777
I82
sS'77184.txt'
p778
I190
sS'78547.txt'
p779
I95
sS'80896.txt'
p780
I236
sS'81016.txt'
p781
I444
sS'78110.txt'
p782
I231
sS'76492.txt'
p783
I266
sS'78017.txt'
p784
I106
sS'78455.txt'
p785
I67
sS'78676.txt'
p786
I103
sS'79073.txt'
p787
I161
sS'78979.txt'
p788
I84
sS'76844.txt'
p789
I218
sS'76692.txt'
p790
I595
sS'78806.txt'
p791
I68
sS'78100.txt'
p792
I99
sS'79041.txt'
p793
I95
sS'80032.txt'
p794
I232
sS'75856.txt'
p795
I109
sS'76625.txt'
p796
I163
sS'79805.txt'
p797
I197
sS'78876.txt'
p798
I197
sS'76924.txt'
p799
I150
sS'80002.txt'
p800
I185
sS'79666.txt'
p801
I55
sS'77979.txt'
p802
I142
sS'81210.txt'
p803
I78
sS'76586.txt'
p804
I48
sS'78981.txt'
p805
I146
sS'76947.txt'
p806
I95
sS'80525.txt'
p807
I155
sS'76738.txt'
p808
I242
sS'76103.txt'
p809
I36
sS'79835.txt'
p810
I96
sS'80259.txt'
p811
I482
sS'78853.txt'
p812
I97
sS'80907.txt'
p813
I67
sS'77634.txt'
p814
I244
sS'79285.txt'
p815
I107
sS'77866.txt'
p816
I60
sS'79475.txt'
p817
I119
sS'79670.txt'
p818
I150
sS'76510.txt'
p819
I211
sS'75950.txt'
p820
I75
sS'80904.txt'
p821
I123
sS'79890.txt'
p822
I200
sS'81013.txt'
p823
I55
sS'79598.txt'
p824
I101
sS'77289.txt'
p825
I201
sS'81320.txt'
p826
I84
sS'76799.txt'
p827
I56
sS'77841.txt'
p828
I150
sS'81649.txt'
p829
I146
sS'77342.txt'
p830
I90
sS'77993.txt'
p831
I51
sS'76893.txt'
p832
I39
sS'81634.txt'
p833
I50
sS'79956.txt'
p834
I187
sS'78405.txt'
p835
I202
sS'78403.txt'
p836
I76
sS'79318.txt'
p837
I202
sS'80221.txt'
p838
I222
sS'75817.txt'
p839
I178
sS'76874.txt'
p840
I39
sS'80649.txt'
p841
I67
sS'75767.txt'
p842
I44
sS'76589.txt'
p843
I54
sS'75764.txt'
p844
I49
sS'76247.txt'
p845
I230
sS'79417.txt'
p846
I84
sS'76541.txt'
p847
I186
sS'76635.txt'
p848
I131
sS'80987.txt'
p849
I65
sS'81560.txt'
p850
I46
sS'77969.txt'
p851
I90
sS'79362.txt'
p852
I85
sS'79720.txt'
p853
I89
sS'79503.txt'
p854
I75
sS'81617.txt'
p855
I69
sS'76642.txt'
p856
I56
sS'75820.txt'
p857
I43
sS'77753.txt'
p858
I339
sS'76689.txt'
p859
I188
sS'78096.txt'
p860
I165
sS'79543.txt'
p861
I73
sS'81028.txt'
p862
I197
sS'77932.txt'
p863
I100
sS'76765.txt'
p864
I76
sS'78500.txt'
p865
I91
sS'77611.txt'
p866
I80
sS'79150.txt'
p867
I387
sS'76288.txt'
p868
I211
sS'81462.txt'
p869
I85
sS'78335.txt'
p870
I65
sS'79497.txt'
p871
I91
sS'77632.txt'
p872
I65
sS'78445.txt'
p873
I490
sS'81286.txt'
p874
I39
sS'78865.txt'
p875
I60
sS'75985.txt'
p876
I91
sS'78697.txt'
p877
I267
sS'78437.txt'
p878
I179
sS'75835.txt'
p879
I101
sS'77928.txt'
p880
I79
sS'80458.txt'
p881
I87
sS'78226.txt'
p882
I67
sS'76736.txt'
p883
I65
sS'80049.txt'
p884
I93
sS'78610.txt'
p885
I105
sS'80982.txt'
p886
I142
sS'78256.txt'
p887
I354
sS'78324.txt'
p888
I62
sS'79063.txt'
p889
I127
sS'77738.txt'
p890
I70
sS'77886.txt'
p891
I111
sS'80008.txt'
p892
I244
sS'77014.txt'
p893
I147
sS'76045.txt'
p894
I51
sS'79716.txt'
p895
I263
sS'75823.txt'
p896
I382
sS'79710.txt'
p897
I80
sS'78534.txt'
p898
I305
sS'77701.txt'
p899
I244
sS'76111.txt'
p900
I162
sS'77143.txt'
p901
I73
sS'77037.txt'
p902
I314
sS'76498.txt'
p903
I202
sS'77280.txt'
p904
I125
sS'77086.txt'
p905
I100
sS'77986.txt'
p906
I67
sS'80681.txt'
p907
I88
sS'79322.txt'
p908
I202
sS'76727.txt'
p909
I321
sS'81107.txt'
p910
I154
sS'79296.txt'
p911
I393
sS'77097.txt'
p912
I240
sS'77779.txt'
p913
I356
sS'77385.txt'
p914
I292
sS'80337.txt'
p915
I244
sS'80045.txt'
p916
I104
sS'77438.txt'
p917
I87
sS'78082.txt'
p918
I167
sS'77271.txt'
p919
I142
sS'80653.txt'
p920
I60
sS'77531.txt'
p921
I115
sS'79814.txt'
p922
I172
sS'80650.txt'
p923
I293
sS'77320.txt'
p924
I90
sS'78608.txt'
p925
I60
sS'78424.txt'
p926
I93
sS'79022.txt'
p927
I57
sS'78174.txt'
p928
I105
sS'80588.txt'
p929
I128
sS'81393.txt'
p930
I67
sS'78024.txt'
p931
I235
sS'78755.txt'
p932
I414
sS'80519.txt'
p933
I56
sS'79756.txt'
p934
I65
sS'79130.txt'
p935
I171
sS'76989.txt'
p936
I198
sS'79008.txt'
p937
I221
sS'80199.txt'
p938
I191
sS'76507.txt'
p939
I103
sS'76163.txt'
p940
I325
sS'81007.txt'
p941
I244
sS'80421.txt'
p942
I86
sS'80770.txt'
p943
I47
sS'76791.txt'
p944
I203
sS'76660.txt'
p945
I68
sS'80473.txt'
p946
I79
sS'76216.txt'
p947
I43
sS'78398.txt'
p948
I94
sS'76302.txt'
p949
I76
sS'79678.txt'
p950
I316
sS'78765.txt'
p951
I102
sS'79019.txt'
p952
I54
sS'77825.txt'
p953
I150
sS'81444.txt'
p954
I84
sS'80669.txt'
p955
I180
sS'78498.txt'
p956
I66
sS'80917.txt'
p957
I166
sS'76257.txt'
p958
I51
sS'77589.txt'
p959
I89
sS'79400.txt'
p960
I60
sS'79627.txt'
p961
I60
sS'80992.txt'
p962
I70
sS'79357.txt'
p963
I244
sS'81022.txt'
p964
I122
sS'78245.txt'
p965
I71
sS'80279.txt'
p966
I244
sS'80842.txt'
p967
I80
sS'77570.txt'
p968
I75
sS'79052.txt'
p969
I69
sS'79515.txt'
p970
I67
sS'75877.txt'
p971
I67
sS'80841.txt'
p972
I88
sS'78836.txt'
p973
I451
sS'78894.txt'
p974
I90
sS'76003.txt'
p975
I87
sS'78926.txt'
p976
I542
sS'78984.txt'
p977
I76
sS'76124.txt'
p978
I135
sS'77207.txt'
p979
I72
sS'79879.txt'
p980
I52
sS'80573.txt'
p981
I167
sS'78012.txt'
p982
I478
sS'78014.txt'
p983
I88
sS'80162.txt'
p984
I169
sS'77290.txt'
p985
I179
sS'76957.txt'
p986
I159
sS'79391.txt'
p987
I244
sS'76831.txt'
p988
I101
sS'78830.txt'
p989
I76
sS'79719.txt'
p990
I548
sS'78959.txt'
p991
I221
sS'79517.txt'
p992
I167
sS'79492.txt'
p993
I244
sS'81329.txt'
p994
I77
sS'79895.txt'
p995
I275
sS'78693.txt'
p996
I87
sS'79267.txt'
p997
I94
sS'81091.txt'
p998
I51
sS'79123.txt'
p999
I422
sS'80080.txt'
p1000
I271
sS'79333.txt'
p1001
I75
sS'79446.txt'
p1002
I95
sS'77674.txt'
p1003
I261
sS'75977.txt'
p1004
I67
sS'79509.txt'
p1005
I98
sS'80314.txt'
p1006
I88
sS'76089.txt'
p1007
I106
sS'78655.txt'
p1008
I253
sS'77855.txt'
p1009
I128
sS'81063.txt'
p1010
I579
sS'78378.txt'
p1011
I83
sS'78647.txt'
p1012
I93
sS'76463.txt'
p1013
I53
sS'80880.txt'
p1014
I100
sS'77787.txt'
p1015
I259
sS'80180.txt'
p1016
I252
sS'81481.txt'
p1017
I824
sS'81542.txt'
p1018
I432
sS'76968.txt'
p1019
I228
sS'78108.txt'
p1020
I246
sS'76894.txt'
p1021
I73
sS'79951.txt'
p1022
I92
sS'76966.txt'
p1023
I231
sS'79825.txt'
p1024
I75
sS'78588.txt'
p1025
I166
sS'78476.txt'
p1026
I149
sS'80190.txt'
p1027
I74
sS'78960.txt'
p1028
I173
sS'79910.txt'
p1029
I116
sS'80290.txt'
p1030
I147
sS'80754.txt'
p1031
I185
sS'77481.txt'
p1032
I52
sS'78006.txt'
p1033
I164
sS'75790.txt'
p1034
I109
sS'78145.txt'
p1035
I159
sS'76654.txt'
p1036
I237
sS'80438.txt'
p1037
I87
sS'76223.txt'
p1038
I94
sS'77041.txt'
p1039
I103
sS'81045.txt'
p1040
I60
sS'78602.txt'
p1041
I126
sS'78463.txt'
p1042
I207
sS'76130.txt'
p1043
I157
sS'81339.txt'
p1044
I89
sS'76827.txt'
p1045
I98
sS'81422.txt'
p1046
I188
sS'80479.txt'
p1047
I204
sS'76146.txt'
p1048
I97
sS'81106.txt'
p1049
I315
sS'79367.txt'
p1050
I101
sS'79361.txt'
p1051
I73
sS'78512.txt'
p1052
I59
sS'77644.txt'
p1053
I338
sS'77296.txt'
p1054
I55
sS'79635.txt'
p1055
I178
sS'80157.txt'
p1056
I111
sS'77043.txt'
p1057
I55
sS'77456.txt'
p1058
I40
sS'77209.txt'
p1059
I77
sS'76725.txt'
p1060
I446
sS'77965.txt'
p1061
I406
sS'77762.txt'
p1062
I68
sS'76455.txt'
p1063
I581
sS'80043.txt'
p1064
I80
sS'78706.txt'
p1065
I70
sS'79799.txt'
p1066
I67
sS'81256.txt'
p1067
I138
sS'79398.txt'
p1068
I244
sS'81167.txt'
p1069
I100
sS'79573.txt'
p1070
I77
sS'81378.txt'
p1071
I108
sS'77248.txt'
p1072
I55
sS'78279.txt'
p1073
I127
sS'81200.txt'
p1074
I55
sS'81509.txt'
p1075
I227
sS'79550.txt'
p1076
I81
sS'77554.txt'
p1077
I180
sS'77100.txt'
p1078
I97
sS'78929.txt'
p1079
I42
sS'77881.txt'
p1080
I191
sS'80792.txt'
p1081
I79
sS'81117.txt'
p1082
I149
sS'78037.txt'
p1083
I58
sS'77593.txt'
p1084
I143
sS'77013.txt'
p1085
I178
sS'75979.txt'
p1086
I130
sS'79765.txt'
p1087
I59
sS'78339.txt'
p1088
I163
sS'79389.txt'
p1089
I63
sS'79327.txt'
p1090
I85
sS'76969.txt'
p1091
I96
sS'78041.txt'
p1092
I158
sS'79315.txt'
p1093
I84
sS'81488.txt'
p1094
I340
sS'80366.txt'
p1095
I170
sS'81165.txt'
p1096
I75
sS'79586.txt'
p1097
I144
sS'79900.txt'
p1098
I86
sS'79016.txt'
p1099
I104
sS'76387.txt'
p1100
I61
sS'81367.txt'
p1101
I75
sS'80356.txt'
p1102
I159
sS'79420.txt'
p1103
I201
sS'76141.txt'
p1104
I232
sS'76733.txt'
p1105
I67
sS'76208.txt'
p1106
I67
sS'77325.txt'
p1107
I156
sS'79774.txt'
p1108
I78
sS'77734.txt'
p1109
I113
sS'79962.txt'
p1110
I239
sS'76303.txt'
p1111
I66
sS'77357.txt'
p1112
I234
sS'76550.txt'
p1113
I89
sS'81609.txt'
p1114
I90
sS'75924.txt'
p1115
I101
sS'81454.txt'
p1116
I163
sS'77189.txt'
p1117
I184
sS'79194.txt'
p1118
I92
sS'79564.txt'
p1119
I109
sS'79605.txt'
p1120
I68
sS'77758.txt'
p1121
I255
sS'78300.txt'
p1122
I76
sS'79510.txt'
p1123
I95
sS'77497.txt'
p1124
I52
sS'81086.txt'
p1125
I219
sS'79380.txt'
p1126
I98
sS'80213.txt'
p1127
I106
sS'79409.txt'
p1128
I88
sS'81394.txt'
p1129
I90
sS'76527.txt'
p1130
I603
sS'78077.txt'
p1131
I94
sS'78951.txt'
p1132
I54
sS'78427.txt'
p1133
I127
sS'76410.txt'
p1134
I85
sS'80625.txt'
p1135
I389
sS'76351.txt'
p1136
I80
sS'77395.txt'
p1137
I345
sS'79725.txt'
p1138
I812
sS'77544.txt'
p1139
I182
sS'78995.txt'
p1140
I151
sS'79231.txt'
p1141
I206
sS'78812.txt'
p1142
I55
sS'80450.txt'
p1143
I166
sS'78171.txt'
p1144
I311
sS'78177.txt'
p1145
I219
sS'80959.txt'
p1146
I135
sS'75838.txt'
p1147
I60
sS'77416.txt'
p1148
I56
sS'79184.txt'
p1149
I164
sS'76912.txt'
p1150
I71
sS'80735.txt'
p1151
I73
sS'81452.txt'
p1152
I148
sS'80894.txt'
p1153
I233
sS'76048.txt'
p1154
I85
sS'81137.txt'
p1155
I70
sS'78046.txt'
p1156
I218
sS'79438.txt'
p1157
I125
sS'80752.txt'
p1158
I70
sS'76105.txt'
p1159
I76
sS'77459.txt'
p1160
I118
sS'76773.txt'
p1161
I235
sS'76846.txt'
p1162
I257
sS'79254.txt'
p1163
I65
sS'80200.txt'
p1164
I398
sS'75854.txt'
p1165
I183
sS'80963.txt'
p1166
I341
sS'76627.txt'
p1167
I155
sS'81018.txt'
p1168
I120
sS'78296.txt'
p1169
I55
sS'80249.txt'
p1170
I221
sS'79868.txt'
p1171
I102
sS'80298.txt'
p1172
I83
sS'79659.txt'
p1173
I87
sS'77810.txt'
p1174
I146
sS'77791.txt'
p1175
I51
sS'81067.txt'
p1176
I74
sS'77344.txt'
p1177
I49
sS'81243.txt'
p1178
I159
sS'76129.txt'
p1179
I589
sS'81445.txt'
p1180
I133
sS'78640.txt'
p1181
I362
sS'78847.txt'
p1182
I204
sS'77820.txt'
p1183
I76
sS'77049.txt'
p1184
I93
sS'75989.txt'
p1185
I98
sS'81493.txt'
p1186
I82
sS'81080.txt'
p1187
I206
sS'78591.txt'
p1188
I135
sS'79668.txt'
p1189
I235
sS'79442.txt'
p1190
I84
sS'79837.txt'
p1191
I80
sS'80683.txt'
p1192
I107
sS'79909.txt'
p1193
I82
sS'77971.txt'
p1194
I228
sS'81408.txt'
p1195
I132
sS'76364.txt'
p1196
I76
sS'78273.txt'
p1197
I151
sS'79075.txt'
p1198
I258
sS'76098.txt'
p1199
I82
sS'80906.txt'
p1200
I55
sS'80395.txt'
p1201
I183
sS'79386.txt'
p1202
I137
sS'75917.txt'
p1203
I76
sS'80087.txt'
p1204
I192
sS'78148.txt'
p1205
I244
sS'78747.txt'
p1206
I256
sS'76029.txt'
p1207
I138
sS'80218.txt'
p1208
I301
sS'79614.txt'
p1209
I93
sS'80125.txt'
p1210
I174
sS'80819.txt'
p1211
I86
sS'78898.txt'
p1212
I91
sS'79615.txt'
p1213
I75
sS'76188.txt'
p1214
I605
sS'81250.txt'
p1215
I148
sS'79954.txt'
p1216
I137
sS'76375.txt'
p1217
I79
sS'78978.txt'
p1218
I161
sS'79204.txt'
p1219
I193
sS'79262.txt'
p1220
I362
sS'76876.txt'
p1221
I60
sS'79530.txt'
p1222
I85
sS'78101.txt'
p1223
I85
sS'78874.txt'
p1224
I166
sS'77973.txt'
p1225
I208
sS'79847.txt'
p1226
I146
sS'77601.txt'
p1227
I240
sS'78414.txt'
p1228
I78
sS'75766.txt'
p1229
I190
sS'76245.txt'
p1230
I138
sS'79096.txt'
p1231
I67
sS'77470.txt'
p1232
I68
sS'81472.txt'
p1233
I184
sS'77409.txt'
p1234
I202
sS'79989.txt'
p1235
I162
sS'80224.txt'
p1236
I146
sS'78506.txt'
p1237
I90
sS'80547.txt'
p1238
I166
sS'77860.txt'
p1239
I149
sS'77751.txt'
p1240
I211
sS'76091.txt'
p1241
I261
sS'79082.txt'
p1242
I208
sS'80013.txt'
p1243
I256
sS'76549.txt'
p1244
I130
sS'78767.txt'
p1245
I55
sS'81224.txt'
p1246
I55
sS'77930.txt'
p1247
I569
sS'80989.txt'
p1248
I89
sS'80194.txt'
p1249
I103
sS'78232.txt'
p1250
I133
sS'79728.txt'
p1251
I148
sS'79477.txt'
p1252
I72
sS'77125.txt'
p1253
I92
sS'77268.txt'
p1254
I175
sS'81514.txt'
p1255
I188
sS'80370.txt'
p1256
I93
sS'77981.txt'
p1257
I103
sS'79641.txt'
p1258
I65
sS'81504.txt'
p1259
I109
sS'78532.txt'
p1260
I176
sS'78150.txt'
p1261
I98
sS'81152.txt'
p1262
I114
sS'81647.txt'
p1263
I87
sS'80393.txt'
p1264
I187
sS'79104.txt'
p1265
I409
sS'79686.txt'
p1266
I168
sS'78930.txt'
p1267
I234
sS'76376.txt'
p1268
I19
sS'76566.txt'
p1269
I412
sS'79276.txt'
p1270
I189
sS'78224.txt'
p1271
I70
sS'81226.txt'
p1272
I67
sS'78254.txt'
p1273
I91
sS'79115.txt'
p1274
I67
sS'79432.txt'
p1275
I55
sS'81498.txt'
p1276
I367
sS'77884.txt'
p1277
I91
sS'79975.txt'
p1278
I133
sS'79693.txt'
p1279
I131
sS'77617.txt'
p1280
I77
sS'79867.txt'
p1281
I84
sS'81122.txt'
p1282
I349
sS'77314.txt'
p1283
I33
sS'75821.txt'
p1284
I77
sS'79591.txt'
p1285
I244
sS'76688.txt'
p1286
I594
sS'81639.txt'
p1287
I134
sS'79031.txt'
p1288
I257
sS'77703.txt'
p1289
I273
sS'79210.txt'
p1290
I55
sS'80319.txt'
p1291
I145
sS'79234.txt'
p1292
I88
sS'78702.txt'
p1293
I196
sS'80358.txt'
p1294
I185
sS'78393.txt'
p1295
I250
sS'78443.txt'
p1296
I72
sS'76148.txt'
p1297
I244
sS'77084.txt'
p1298
I120
sS'80480.txt'
p1299
I4622
sS'80211.txt'
p1300
I69
sS'78943.txt'
p1301
I133
sS'78795.txt'
p1302
I166
sS'79025.txt'
p1303
I103
sS'80578.txt'
p1304
I148
sS'76639.txt'
p1305
I580
sS'78118.txt'
p1306
I103
sS'81105.txt'
p1307
I152
sS'78034.txt'
p1308
I86
sS'76668.txt'
p1309
I176
sS'79374.txt'
p1310
I107
sS'76979.txt'
p1311
I131
sS'80070.txt'
p1312
I79
sS'77489.txt'
p1313
I366
sS'81162.txt'
p1314
I249
sS'78971.txt'
p1315
I93
sS'77387.txt'
p1316
I65
sS'79761.txt'
p1317
I49
sS'80335.txt'
p1318
I83
sS'80689.txt'
p1319
I81
sS'79049.txt'
p1320
I96
sS'79147.txt'
p1321
I166
sS'76983.txt'
p1322
I1709
sS'80652.txt'
p1323
I144
sS'78842.txt'
p1324
I92
sS'76409.txt'
p1325
I75
sS'77279.txt'
p1326
I101
sS'81528.txt'
p1327
I56
sS'80631.txt'
p1328
I3502
sS'79621.txt'
p1329
I185
sS'81391.txt'
p1330
I172
sS'79247.txt'
p1331
I60
sS'78087.txt'
p1332
I67
sS'81024.txt'
p1333
I71
sS'79769.txt'
p1334
I116
sS'76964.txt'
p1335
I244
sS'78600.txt'
p1336
I89
sS'77317.txt'
p1337
I60
sS'79137.txt'
p1338
I372
sS'80135.txt'
p1339
I94
sS'76229.txt'
p1340
I62
sS'81245.txt'
p1341
I128
sS'77201.txt'
p1342
I170
sS'78159.txt'
p1343
I142
sS'79161.txt'
p1344
I65
sS'76518.txt'
p1345
I223
sS'80575.txt'
p1346
I99
sS'78902.txt'
p1347
I179
sS'81491.txt'
p1348
I54
sS'81478.txt'
p1349
I364
sS'76839.txt'
p1350
I150
sS'77238.txt'
p1351
I278
sS'78182.txt'
p1352
I65
sS'79055.txt'
p1353
I102
sS'79703.txt'
p1354
I229
sS'79418.txt'
p1355
I156
sS'78342.txt'
p1356
I84
sS'77096.txt'
p1357
I66
sS'78816.txt'
p1358
I190
sS'76027.txt'
p1359
I42
sS'78350.txt'
p1360
I224
sS'79750.txt'
p1361
I139
sS'80843.txt'
p1362
I271
sS'78217.txt'
p1363
I67
sS'77752.txt'
p1364
I97
sS'81460.txt'
p1365
I485
sS'81168.txt'
p1366
I193
sS'80187.txt'
p1367
I52
sS'75971.txt'
p1368
I96
sS'79486.txt'
p1369
I89
sS'77904.txt'
p1370
I102
sS'79207.txt'
p1371
I84
sS'79981.txt'
p1372
I55
sS'80238.txt'
p1373
I94
sS'79927.txt'
p1374
I61
sS'77196.txt'
p1375
I86
sS'76158.txt'
p1376
I652
sS'79091.txt'
p1377
I77
sS'79945.txt'
p1378
I106
sS'75828.txt'
p1379
I87
sS'75948.txt'
p1380
I102
sS'78421.txt'
p1381
I244
sS'76955.txt'
p1382
I199
sS'75893.txt'
p1383
I81
sS'76833.txt'
p1384
I2814
sS'80771.txt'
p1385
I154
sS'78065.txt'
p1386
I267
sS'75990.txt'
p1387
I47
sS'77038.txt'
p1388
I286
sS'80167.txt'
p1389
I87
sS'77487.txt'
p1390
I66
sS'76137.txt'
p1391
I301
sS'78641.txt'
p1392
I40
sS'80348.txt'
p1393
I107
sS'80082.txt'
p1394
I67
sS'79394.txt'
p1395
I72
sS'79932.txt'
p1396
I65
sS'78323.txt'
p1397
I415
sS'77676.txt'
p1398
I139
sS'79577.txt'
p1399
I56
sS'81321.txt'
p1400
I115
sS'77857.txt'
p1401
I352
sS'76005.txt'
p1402
I55
sS'77987.txt'
p1403
I293
sS'78311.txt'
p1404
I180
sS'79781.txt'
p1405
I142
sS'80882.txt'
p1406
I100
sS'78858.txt'
p1407
I232
sS'78236.txt'
p1408
I155
sS'81427.txt'
p1409
I66
sS'77715.txt'
p1410
I68
sS'76295.txt'
p1411
I81
sS'81142.txt'
p1412
I242
sS'78927.txt'
p1413
I276
sS'78211.txt'
p1414
I335
sS'75980.txt'
p1415
I178
sS'81270.txt'
p1416
I104
sS'80951.txt'
p1417
I164
sS'77974.txt'
p1418
I155
sS'77789.txt'
p1419
I79
sS'79893.txt'
p1420
I74
sS'81457.txt'
p1421
I67
sS'79092.txt'
p1422
I60
sS'75929.txt'
p1423
I82
sS'78329.txt'
p1424
I134
sS'77226.txt'
p1425
I60
sS'81323.txt'
p1426
I167
sS'79043.txt'
p1427
I78
sS'79671.txt'
p1428
I49
sS'77516.txt'
p1429
I171
sS'76619.txt'
p1430
I77
sS'76453.txt'
p1431
I202
sS'80295.txt'
p1432
I205
sS'77515.txt'
p1433
I54
sS'76132.txt'
p1434
I230
sS'81410.txt'
p1435
I60
sS'79856.txt'
p1436
I171
sS'79280.txt'
p1437
I49
sS'76325.txt'
p1438
I55
sS'76283.txt'
p1439
I67
sS'77158.txt'
p1440
I67
sS'76490.txt'
p1441
I106
sS'76658.txt'
p1442
I100
sS'77897.txt'
p1443
I194
sS'78731.txt'
p1444
I140
sS'77646.txt'
p1445
I193
sS'80383.txt'
p1446
I182
sS'80777.txt'
p1447
I106
sS'81341.txt'
p1448
I190
sS'76539.txt'
p1449
I161
sS'80602.txt'
p1450
I122
sS'79342.txt'
p1451
I61
sS'81480.txt'
p1452
I60
sS'79224.txt'
p1453
I86
sS'77760.txt'
p1454
I97
sS'80633.txt'
p1455
I67
sS'78153.txt'
p1456
I348
sS'81100.txt'
p1457
I2392
sS'80096.txt'
p1458
I62
sS'76922.txt'
p1459
I146
sS'81221.txt'
p1460
I91
sS'80191.txt'
p1461
I91
sS'77374.txt'
p1462
I94
sS'80014.txt'
p1463
I257
sS'81442.txt'
p1464
I90
sS'80707.txt'
p1465
I91
sS'79371.txt'
p1466
I81
sS'76717.txt'
p1467
I73
sS'78581.txt'
p1468
I42
sS'78907.txt'
p1469
I82
sS'79143.txt'
p1470
I182
sS'78809.txt'
p1471
I81
sS'76990.txt'
p1472
I175
sS'76251.txt'
p1473
I158
sS'78070.txt'
p1474
I83
sS'80102.txt'
p1475
I294
sS'79976.txt'
p1476
I75
sS'80507.txt'
p1477
I58
sS'77365.txt'
p1478
I52
sS'80277.txt'
p1479
I59
sS'78745.txt'
p1480
I150
sS'81297.txt'
p1481
I358
sS'75942.txt'
p1482
I190
sS'77230.txt'
p1483
I299
sS'77595.txt'
p1484
I104
sS'76767.txt'
p1485
I579
sS'80016.txt'
p1486
I43
sS'77175.txt'
p1487
I85
sS'76617.txt'
p1488
I89
sS'77542.txt'
p1489
I75
sS'76731.txt'
p1490
I142
sS'78524.txt'
p1491
I90
sS'78644.txt'
p1492
I85
sS'77998.txt'
p1493
I94
sS'80456.txt'
p1494
I106
sS'78059.txt'
p1495
I67
sS'79905.txt'
p1496
I111
sS'79590.txt'
p1497
I112
sS'81375.txt'
p1498
I198
sS'80764.txt'
p1499
I58
sS'76762.txt'
p1500
I67
sS'78579.txt'
p1501
I91
sS'78825.txt'
p1502
I59
sS'79352.txt'
p1503
I90
sS'78707.txt'
p1504
I82
sS'80409.txt'
p1505
I158
sS'80027.txt'
p1506
I118
sS'78975.txt'
p1507
I87
sS'78191.txt'
p1508
I151
sS'76430.txt'
p1509
I127
sS'75940.txt'
p1510
I635
sS'78435.txt'
p1511
I92
sS'76906.txt'
p1512
I161
sS'76580.txt'
p1513
I84
sS'80862.txt'
p1514
I64
sS'77198.txt'
p1515
I183
sS'78330.txt'
p1516
I173
sS'78092.txt'
p1517
I213
sS'81599.txt'
p1518
I140
sS'79993.txt'
p1519
I168
sS'75852.txt'
p1520
I320
sS'78075.txt'
p1521
I67
sS'80241.txt'
p1522
I179
sS'76982.txt'
p1523
I245
sS'77849.txt'
p1524
I99
sS'76408.txt'
p1525
I65
sS'78690.txt'
p1526
I60
sS'80155.txt'
p1527
I342
sS'79244.txt'
p1528
I177
sS'77818.txt'
p1529
I60
sS'78649.txt'
p1530
I140
sS'79388.txt'
p1531
I170
sS'76828.txt'
p1532
I86
sS'76421.txt'
p1533
I209
sS'79800.txt'
p1534
I75
sS'80132.txt'
p1535
I276
sS'77323.txt'
p1536
I186
sS'78032.txt'
p1537
I76
sS'79186.txt'
p1538
I230
sS'75776.txt'
p1539
I76
sS'76910.txt'
p1540
I267
sS'81073.txt'
p1541
I95
sS'78692.txt'
p1542
I82
sS'75910.txt'
p1543
I201
sS'76107.txt'
p1544
I558
sS'77683.txt'
p1545
I88
sS'81021.txt'
p1546
I97
sS'76524.txt'
p1547
I55
sS'81147.txt'
p1548
I256
sS'79811.txt'
p1549
I173
sS'78275.txt'
p1550
I63
sS'78464.txt'
p1551
I227
sS'80935.txt'
p1552
I49
sS'76382.txt'
p1553
I116
sS'79430.txt'
p1554
I55
sS'78650.txt'
p1555
I319
sS'76935.txt'
p1556
I95
sS'76140.txt'
p1557
I66
sS'77812.txt'
p1558
I49
sS'80762.txt'
p1559
I243
sS'76255.txt'
p1560
I148
sS'78315.txt'
p1561
I72
sS'77822.txt'
p1562
I95
sS'79651.txt'
p1563
I215
sS'79355.txt'
p1564
I103
sS'78109.txt'
p1565
I332
sS'78893.txt'
p1566
I75
sS'81467.txt'
p1567
I268
sS'81185.txt'
p1568
I67
sS'81354.txt'
p1569
I90
sS'76683.txt'
p1570
I282
sS'80608.txt'
p1571
I55
sS'77609.txt'
p1572
I436
sS'78426.txt'
p1573
I84
sS'75755.txt'
p1574
I86
sS'78336.txt'
p1575
I276
sS'76213.txt'
p1576
I50
sS'78914.txt'
p1577
I50
sS'80876.txt'
p1578
I136
sS'78768.txt'
p1579
I75
sS'80794.txt'
p1580
I115
sS'78813.txt'
p1581
I67
sS'76422.txt'
p1582
I567
sS'78054.txt'
p1583
I90
sS'77561.txt'
p1584
I79
sS'76161.txt'
p1585
I47
sS'81266.txt'
p1586
I410
sS'77167.txt'
p1587
I90
sS'76099.txt'
p1588
I98
sS'79027.txt'
p1589
I75
sS'79629.txt'
p1590
I87
sS'80138.txt'
p1591
I365
sS'80154.txt'
p1592
I76
sS'77164.txt'
p1593
I99
sS'76521.txt'
p1594
I52
sS'79225.txt'
p1595
I241
sS'80789.txt'
p1596
I159
sS'81061.txt'
p1597
I92
sS'81572.txt'
p1598
I137
sS'81519.txt'
p1599
I178
sS'75887.txt'
p1600
I89
sS'77023.txt'
p1601
I79
sS'77603.txt'
p1602
I82
sS'79869.txt'
p1603
I157
sS'78205.txt'
p1604
I51
sS'80933.txt'
p1605
I118
sS'76294.txt'
p1606
I251
sS'77150.txt'
p1607
I81
sS'77548.txt'
p1608
I76
sS'80192.txt'
p1609
I187
sS'78125.txt'
p1610
I98
sS'81274.txt'
p1611
I633
sS'80272.txt'
p1612
I56
sS'79471.txt'
p1613
I67
sS'79159.txt'
p1614
I43
sS'76329.txt'
p1615
I162
sS'79773.txt'
p1616
I166
sS'77341.txt'
p1617
I303
sS'81400.txt'
p1618
I71
sS'81324.txt'
p1619
I81
sS'79088.txt'
p1620
I64
sS'77509.txt'
p1621
I55
sS'78358.txt'
p1622
I60
sS'77257.txt'
p1623
I66
sS'80403.txt'
p1624
I55
sS'77468.txt'
p1625
I68
sS'79741.txt'
p1626
I68
sS'79952.txt'
p1627
I179
sS'75753.txt'
p1628
I94
sS'78891.txt'
p1629
I174
sS'77890.txt'
p1630
I235
sS'76713.txt'
p1631
I593
sS'78762.txt'
p1632
I64
sS'78563.txt'
p1633
I231
sS'78944.txt'
p1634
I133
sS'81364.txt'
p1635
I65
sS'78530.txt'
p1636
I129
sS'80511.txt'
p1637
I66
sS'80531.txt'
p1638
I56
sS'77990.txt'
p1639
I34
sS'79855.txt'
p1640
I197
sS'77260.txt'
p1641
I191
sS'80112.txt'
p1642
I211
sS'81596.txt'
p1643
I133
sS'79178.txt'
p1644
I78
sS'79021.txt'
p1645
I180
sS'77224.txt'
p1646
I44
sS'76374.txt'
p1647
I103
sS'81450.txt'
p1648
I55
sS'77476.txt'
p1649
I67
sS'79779.txt'
p1650
I31
sS'80401.txt'
p1651
I216
sS'81574.txt'
p1652
I73
sS'77869.txt'
p1653
I163
sS'80719.txt'
p1654
I277
sS'78667.txt'
p1655
I63
sS'78704.txt'
p1656
I274
sS'80333.txt'
p1657
I210
sS'78561.txt'
p1658
I95
sS'77145.txt'
p1659
I58
sS'80878.txt'
p1660
I95
sS'80006.txt'
p1661
I466
sS'79149.txt'
p1662
I113
sS'80376.txt'
p1663
I89
sS'80661.txt'
p1664
I113
sS'77828.txt'
p1665
I97
sS'76431.txt'
p1666
I143
sS'78860.txt'
p1667
I182
sS'78126.txt'
p1668
I103
sS'76008.txt'
p1669
I75
sS'80839.txt'
p1670
I140
sS'75830.txt'
p1671
I186
sS'76513.txt'
p1672
I52
sS'79112.txt'
p1673
I90
sS'78004.txt'
p1674
I85
sS'79320.txt'
p1675
I100
sS'78850.txt'
p1676
I262
sS'76112.txt'
p1677
I346
sS'77269.txt'
p1678
I78
sS'76902.txt'
p1679
I240
sS'80139.txt'
p1680
I55
sS'81285.txt'
p1681
I48
sS'80072.txt'
p1682
I292
sS'78784.txt'
p1683
I201
sS'76993.txt'
p1684
I184
sS'78897.txt'
p1685
I67
sS'76740.txt'
p1686
I52
sS'80713.txt'
p1687
I327
sS'76106.txt'
p1688
I67
sS'80011.txt'
p1689
I343
sS'77882.txt'
p1690
I85
sS'78155.txt'
p1691
I142
sS'76064.txt'
p1692
I84
sS'79788.txt'
p1693
I204
sS'79108.txt'
p1694
I56
sS'79914.txt'
p1695
I118
sS'76576.txt'
p1696
I569
sS'76217.txt'
p1697
I260
sS'78085.txt'
p1698
I147
sS'76263.txt'
p1699
I184
sS'77437.txt'
p1700
I84
sS'78356.txt'
p1701
I53
sS'80816.txt'
p1702
I212
sS'79164.txt'
p1703
I189
sS'80966.txt'
p1704
I86
sS'77315.txt'
p1705
I95
sS'75947.txt'
p1706
I55
sS'79970.txt'
p1707
I91
sS'76203.txt'
p1708
I55
sS'81218.txt'
p1709
I111
sS'79372.txt'
p1710
I231
sS'76980.txt'
p1711
I93
sS'80667.txt'
p1712
I125
sS'76856.txt'
p1713
I62
sS'78478.txt'
p1714
I80
sS'76221.txt'
p1715
I86
sS'76347.txt'
p1716
I244
sS'78810.txt'
p1717
I228
sS'78794.txt'
p1718
I140
sS'79229.txt'
p1719
I55
sS'76529.txt'
p1720
I239
sS'78035.txt'
p1721
I92
sS'81207.txt'
p1722
I91
sS'79529.txt'
p1723
I81
sS'80924.txt'
p1724
I122
sS'75806.txt'
p1725
I57
sS'81397.txt'
p1726
I107
sS'78970.txt'
p1727
I201
sS'75939.txt'
p1728
I248
sS'81002.txt'
p1729
I85
sS'79317.txt'
p1730
I173
sS'77062.txt'
p1731
I53
sS'76497.txt'
p1732
I104
sS'76259.txt'
p1733
I284
sS'80549.txt'
p1734
I204
sS'77061.txt'
p1735
I526
sS'76385.txt'
p1736
I88
sS'76266.txt'
p1737
I104
sS'79479.txt'
p1738
I82
sS'77680.txt'
p1739
I104
sS'77618.txt'
p1740
I85
sS'75744.txt'
p1741
I193
sS'78423.txt'
p1742
I45
sS'77355.txt'
p1743
I127
sS'75891.txt'
p1744
I438
sS'79242.txt'
p1745
I212
sS'78411.txt'
p1746
I77
sS'77902.txt'
p1747
I214
sS'77431.txt'
p1748
I150
sS'77067.txt'
p1749
I59
sS'80810.txt'
p1750
I75
sS'78240.txt'
p1751
I156
sS'80957.txt'
p1752
I83
sS'77485.txt'
p1753
I256
sS'78636.txt'
p1754
I578
sS'79396.txt'
p1755
I89
sS'78270.txt'
p1756
I97
sS'80117.txt'
p1757
I64
sS'76709.txt'
p1758
I405
sS'77378.txt'
p1759
I175
sS'79045.txt'
p1760
I67
sS'80784.txt'
p1761
I261
sS'79694.txt'
p1762
I104
sS'81479.txt'
p1763
I78
sS'77204.txt'
p1764
I76
sS'75998.txt'
p1765
I74
sS'77988.txt'
p1766
I173
sS'77799.txt'
p1767
I281
sS'80570.txt'
p1768
I146
sS'77748.txt'
p1769
I93
sS'76438.txt'
p1770
I91
sS'79153.txt'
p1771
I54
sS'77532.txt'
p1772
I70
sS'80340.txt'
p1773
I106
sS'75805.txt'
p1774
I54
sS'76139.txt'
p1775
I107
sS'78552.txt'
p1776
I274
sS'77190.txt'
p1777
I60
sS'81209.txt'
p1778
I114
sS'76591.txt'
p1779
I422
sS'80374.txt'
p1780
I75
sS'76469.txt'
p1781
I590
sS'79745.txt'
p1782
I180
sS'78620.txt'
p1783
I97
sS'77304.txt'
p1784
I87
sS'79487.txt'
p1785
I60
sS'80436.txt'
p1786
I179
sS'81594.txt'
p1787
I242
sS'80523.txt'
p1788
I245
sS'81129.txt'
p1789
I156
sS'76491.txt'
p1790
I220
sS'75974.txt'
p1791
I76
sS'77293.txt'
p1792
I128
sS'76011.txt'
p1793
I74
sS'80084.txt'
p1794
I92
sS'75829.txt'
p1795
I103
sS'76317.txt'
p1796
I121
sS'77713.txt'
p1797
I220
sS'80311.txt'
p1798
I318
sS'80342.txt'
p1799
I86
sS'81130.txt'
p1800
I123
sS'80679.txt'
p1801
I330
sS'77517.txt'
p1802
I197
sS'79872.txt'
p1803
I104
sS'75991.txt'
p1804
I212
sS'77346.txt'
p1805
I60
sS'78622.txt'
p1806
I404
sS'78781.txt'
p1807
I140
sS'77408.txt'
p1808
I240
sS'76719.txt'
p1809
I96
sS'78112.txt'
p1810
I91
sS'78230.txt'
p1811
I97
sS'78733.txt'
p1812
I186
sS'78859.txt'
p1813
I49
sS'77442.txt'
p1814
I75
sS'78965.txt'
p1815
I58
sS'80381.txt'
p1816
I64
sS'78773.txt'
p1817
I79
sS'80204.txt'
p1818
I95
sS'75795.txt'
p1819
I67
sS'79035.txt'
p1820
I76
sS'78483.txt'
p1821
I47
sS'78933.txt'
p1822
I91
sS'80859.txt'
p1823
I186
sS'80459.txt'
p1824
I65
sS'76620.txt'
p1825
I73
sS'80670.txt'
p1826
I99
sS'80534.txt'
p1827
I70
sS'80406.txt'
p1828
I183
sS'77569.txt'
p1829
I67
sS'80705.txt'
p1830
I60
sS'81187.txt'
p1831
I961
sS'76169.txt'
p1832
I109
sS'76558.txt'
p1833
I84
sS'76758.txt'
p1834
I174
sS'81008.txt'
p1835
I95
sS'77228.txt'
p1836
I107
sS'80297.txt'
p1837
I108
sS'81428.txt'
p1838
I190
sS'80828.txt'
p1839
I167
sS'81564.txt'
p1840
I180
sS'79833.txt'
p1841
I94
sS'79533.txt'
p1842
I142
sS'79994.txt'
p1843
I153
sS'76253.txt'
p1844
I178
sS'80899.txt'
p1845
I44
sS'78818.txt'
p1846
I379
sS'78433.txt'
p1847
I72
sS'76908.txt'
p1848
I402
sS'76108.txt'
p1849
I243
sS'79731.txt'
p1850
I257
sS'81335.txt'
p1851
I199
sS'77232.txt'
p1852
I63
sS'76996.txt'
p1853
I290
sS'79853.txt'
p1854
I101
sS'78078.txt'
p1855
I247
sS'81629.txt'
p1856
I138
sS'80104.txt'
p1857
I108
sS'76931.txt'
p1858
I241
sS'78188.txt'
p1859
I256
sS'79532.txt'
p1860
I97
sS'80223.txt'
p1861
I59
sS'78526.txt'
p1862
I99
sS'76971.txt'
p1863
I76
sS'75997.txt'
p1864
I109
sS'79457.txt'
p1865
I176
sS'78973.txt'
p1866
I53
sS'79907.txt'
p1867
I223
sS'76321.txt'
p1868
I90
sS'77590.txt'
p1869
I60
sS'79531.txt'
p1870
I55
sS'81651.txt'
p1871
I91
sS'81088.txt'
p1872
I263
sS'79935.txt'
p1873
I58
sS'79145.txt'
p1874
I72
sS'78152.txt'
p1875
I130
sS'78827.txt'
p1876
I145
sS'76871.txt'
p1877
I49
sS'80821.txt'
p1878
I102
sS'76760.txt'
p1879
I107
sS'81540.txt'
p1880
I83
sS'79099.txt'
p1881
I184
sS'80914.txt'
p1882
I143
sS'76318.txt'
p1883
I217
sS'79464.txt'
p1884
I86
sS'76949.txt'
p1885
I179
sS'76434.txt'
p1886
I51
sS'79274.txt'
p1887
I134
sS'76868.txt'
p1888
I34
sS'79790.txt'
p1889
I61
sS'79221.txt'
p1890
I170
sS'79498.txt'
p1891
I147
sS'81175.txt'
p1892
I169
sS'78472.txt'
p1893
I104
sS'79977.txt'
p1894
I67
sS'79127.txt'
p1895
I89
sS'77364.txt'
p1896
I67
sS'77937.txt'
p1897
I66
sS'78030.txt'
p1898
I98
sS'78458.txt'
p1899
I159
sS'75774.txt'
p1900
I121
sS'77139.txt'
p1901
I459
sS'78060.txt'
p1902
I97
sS'81071.txt'
p1903
I132
sS'81500.txt'
p1904
I76
sS'79542.txt'
p1905
I149
sS'78305.txt'
p1906
I132
sS'76650.txt'
p1907
I78
sS'80870.txt'
p1908
I74
sS'81494.txt'
p1909
I92
sS'81023.txt'
p1910
I67
sS'77240.txt'
p1911
I80
sS'78715.txt'
p1912
I55
sS'78353.txt'
p1913
I318
sS'78628.txt'
p1914
I91
sS'80526.txt'
p1915
I85
sS'76380.txt'
p1916
I60
sS'78449.txt'
p1917
I169
sS'75927.txt'
p1918
I95
sS'79706.txt'
p1919
I140
sS'79287.txt'
p1920
I244
sS'77547.txt'
p1921
I115
sS'80759.txt'
p1922
I257
sS'80453.txt'
p1923
I198
sS'76036.txt'
p1924
I48
sS'77685.txt'
p1925
I76
sS'77103.txt'
p1926
I261
sS'78677.txt'
p1927
I236
sS'80028.txt'
p1928
I500
sS'76379.txt'
p1929
I434
sS'81229.txt'
p1930
I55
sS'79653.txt'
p1931
I82
sS'77666.txt'
p1932
I64
sS'78093.txt'
p1933
I60
sS'79688.txt'
p1934
I55
sS'78725.txt'
p1935
I174
sS'81521.txt'
p1936
I279
sS'79134.txt'
p1937
I87
sS'80564.txt'
p1938
I55
sS'79245.txt'
p1939
I171
sS'77704.txt'
p1940
I93
sS'76933.txt'
p1941
I75
sS'79881.txt'
p1942
I87
sS'75857.txt'
p1943
I71
sS'79780.txt'
p1944
I353
sS'76420.txt'
p1945
I194
sS'80747.txt'
p1946
I431
sS'81446.txt'
p1947
I75
sS'81352.txt'
p1948
I90
sS'78293.txt'
p1949
I94
sS'76311.txt'
p1950
I78
sS'80594.txt'
p1951
I244
sS'77166.txt'
p1952
I183
sS'77383.txt'
p1953
I60
sS'80597.txt'
p1954
I370
sS'77203.txt'
p1955
I98
sS'80266.txt'
p1956
I167
sS'78727.txt'
p1957
I291
sS'77453.txt'
p1958
I101
sS'77066.txt'
p1959
I122
sS'75960.txt'
p1960
I128
sS'77039.txt'
p1961
I226
sS'78313.txt'
p1962
I146
sS'78143.txt'
p1963
I59
sS'77436.txt'
p1964
I201
sS'80637.txt'
p1965
I63
sS'80781.txt'
p1966
I311
sS'78207.txt'
p1967
I48
sS'80787.txt'
p1968
I185
sS'80143.txt'
p1969
I74
sS'76485.txt'
p1970
I71
sS'78546.txt'
p1971
I67
sS'79070.txt'
p1972
I207
sS'79406.txt'
p1973
I105
sS'77423.txt'
p1974
I44
sS'79040.txt'
p1975
I288
sS'77343.txt'
p1976
I161
sS'80609.txt'
p1977
I75
sS'77371.txt'
p1978
I76
sS'76390.txt'
p1979
I74
sS'80345.txt'
p1980
I181
sS'76537.txt'
p1981
I213
sS'80648.txt'
p1982
I99
sS'81241.txt'
p1983
I76
sS'80736.txt'
p1984
I184
sS'76312.txt'
p1985
I49
sS'79502.txt'
p1986
I517
sS'77318.txt'
p1987
I243
sS'80897.txt'
p1988
I122
sS'80039.txt'
p1989
I94
sS'80684.txt'
p1990
I55
sS'79922.txt'
p1991
I266
sS'79410.txt'
p1992
I55
sS'78095.txt'
p1993
I63
sS'78868.txt'
p1994
I84
sS'81255.txt'
p1995
I83
sS'77429.txt'
p1996
I58
sS'79733.txt'
p1997
I95
sS'78051.txt'
p1998
I101
sS'78002.txt'
p1999
I266
sS'78991.txt'
p2000
I248
sS'76579.txt'
p2001
I206
sS'80723.txt'
p2002
I74
sS'80179.txt'
p2003
I251
sS'80749.txt'
p2004
I94
sS'81029.txt'
p2005
I87
sS'77522.txt'
p2006
I60
sS'80123.txt'
p2007
I94
sS'81371.txt'
p2008
I76
sS'78117.txt'
p2009
I166
sS'78111.txt'
p2010
I251
sS'80517.txt'
p2011
I473
sS'76153.txt'
p2012
I264
sS'76310.txt'
p2013
I84
sS'81345.txt'
p2014
I94
sS'80160.txt'
p2015
I109
sS'79294.txt'
p2016
I136
sS'78665.txt'
p2017
I460
sS'76062.txt'
p2018
I91
sS'81151.txt'
p2019
I57
sS'79412.txt'
p2020
I67
sS'78988.txt'
p2021
I75
sS'79490.txt'
p2022
I305
sS'79816.txt'
p2023
I73
sS'76715.txt'
p2024
I56
sS'79580.txt'
p2025
I73
sS'80137.txt'
p2026
I89
sS'76952.txt'
p2027
I51
sS'75982.txt'
p2028
I168
sS'76429.txt'
p2029
I288
sS'78569.txt'
p2030
I80
sS'75832.txt'
p2031
I55
sS'80905.txt'
p2032
I57
sS'79110.txt'
p2033
I55
sS'77288.txt'
p2034
I95
sS'78760.txt'
p2035
I184
sS'76540.txt'
p2036
I49
sS'76340.txt'
p2037
I73
sS'75918.txt'
p2038
I89
sS'76451.txt'
p2039
I82
sS'79373.txt'
p2040
I202
sS'76865.txt'
p2041
I116
sS'81331.txt'
p2042
I89
sS'76991.txt'
p2043
I47
sS'78595.txt'
p2044
I144
sS'79854.txt'
p2045
I55
sS'80972.txt'
p2046
I55
sS'77261.txt'
p2047
I413
sS'77850.txt'
p2048
I87
sS'79924.txt'
p2049
I95
sS'78157.txt'
p2050
I260
sS'77331.txt'
p2051
I67
sS'76536.txt'
p2052
I68
sS'78029.txt'
p2053
I92
sS'79928.txt'
p2054
I105
sS'81641.txt'
p2055
I134
sS'80095.txt'
p2056
I93
sS'75765.txt'
p2057
I166
sS'77957.txt'
p2058
I90
sS'78165.txt'
p2059
I86
sS'78299.txt'
p2060
I67
sS'80658.txt'
p2061
I265
sS'78446.txt'
p2062
I89
sS'77287.txt'
p2063
I74
sS'79539.txt'
p2064
I181
sS'81366.txt'
p2065
I236
sS'75931.txt'
p2066
I98
sS'79763.txt'
p2067
I82
sS'76260.txt'
p2068
I67
sS'77156.txt'
p2069
I103
sS'77927.txt'
p2070
I211
sS'78436.txt'
p2071
I77
sS'81433.txt'
p2072
I405
sS'80232.txt'
p2073
I284
sS'78584.txt'
p2074
I75
sS'75822.txt'
p2075
I61
sS'79311.txt'
p2076
I58
sS'76904.txt'
p2077
I187
sS'76185.txt'
p2078
I56
sS'79972.txt'
p2079
I98
sS'78389.txt'
p2080
I122
sS'80336.txt'
p2081
I122
sS'79208.txt'
p2082
I90
sS'79889.txt'
p2083
I244
sS'78754.txt'
p2084
I247
sS'80419.txt'
p2085
I177
sS'79646.txt'
p2086
I128
sS'78127.txt'
p2087
I81
sS'81567.txt'
p2088
I116
sS'78852.txt'
p2089
I80
sS'77955.txt'
p2090
I322
sS'79576.txt'
p2091
I108
sS'81414.txt'
p2092
I106
sS'77420.txt'
p2093
I201
sS'77754.txt'
p2094
I275
sS'80461.txt'
p2095
I152
sS'78219.txt'
p2096
I100
sS'78248.txt'
p2097
I145
sS'78517.txt'
p2098
I130
sS'77641.txt'
p2099
I213
sS'78083.txt'
p2100
I322
sS'81205.txt'
p2101
I77
sS'79645.txt'
p2102
I179
sS'76574.txt'
p2103
I76
sS'81000.txt'
p2104
I153
sS'77658.txt'
p2105
I251
sS'80849.txt'
p2106
I109
sS'77063.txt'
p2107
I49
sS'79915.txt'
p2108
I55
sS'77303.txt'
p2109
I75
sS'77540.txt'
p2110
I90
sS'76809.txt'
p2111
I67
sS'80697.txt'
p2112
I135
sS'77776.txt'
p2113
I196
sS'78554.txt'
p2114
I131
sS'78684.txt'
p2115
I208
sS'77682.txt'
p2116
I295
sS'79682.txt'
p2117
I209
sS'80379.txt'
p2118
I452
sS'79240.txt'
p2119
I89
sS'81416.txt'
p2120
I362
sS'76398.txt'
p2121
I278
sS'76291.txt'
p2122
I129
sS'81219.txt'
p2123
I97
sS'79181.txt'
p2124
I195
sS'78242.txt'
p2125
I183
sS'79827.txt'
p2126
I230
sS'78609.txt'
p2127
I299
sS'76183.txt'
p2128
I239
sS'79755.txt'
p2129
I159
sS'78272.txt'
p2130
I72
sS'78538.txt'
p2131
I60
sS'77907.txt'
p2132
I43
sS'76162.txt'
p2133
I35
sS'78831.txt'
p2134
I89
sS'77206.txt'
p2135
I96
sS'80020.txt'
p2136
I358
sS'81526.txt'
p2137
I203
sS'79841.txt'
p2138
I117
sS'81206.txt'
p2139
I228
sS'76068.txt'
p2140
I67
sS'77252.txt'
p2141
I87
sS'81377.txt'
p2142
I211
sS'76783.txt'
p2143
I55
sS'75807.txt'
p2144
I185
sS'80489.txt'
p2145
I433
sS'78638.txt'
p2146
I55
sS'81653.txt'
p2147
I147
sS'80651.txt'
p2148
I216
sS'76701.txt'
p2149
I64
sS'77729.txt'
p2150
I76
sS'79447.txt'
p2151
I181
sS'78425.txt'
p2152
I126
sS'80019.txt'
p2153
I55
sS'81298.txt'
p2154
I87
sS'81248.txt'
p2155
I282
sS'79124.txt'
p2156
I80
sS'78132.txt'
p2157
I85
sS'77449.txt'
p2158
I98
sS'79600.txt'
p2159
I85
sS'80508.txt'
p2160
I170
sS'79390.txt'
p2161
I95
sS'77131.txt'
p2162
I75
sS'78382.txt'
p2163
I413
sS'76432.txt'
p2164
I67
sS'81188.txt'
p2165
I151
sS'78917.txt'
p2166
I53
sS'79329.txt'
p2167
I261
sS'80313.txt'
p2168
I66
sS'80430.txt'
p2169
I84
sS'76000.txt'
p2170
I116
sS'77430.txt'
p2171
I149
sS'76703.txt'
p2172
I83
sS'78987.txt'
p2173
I55
sS'80678.txt'
p2174
I345
sS'76662.txt'
p2175
I148
sS'79913.txt'
p2176
I82
sS'76859.txt'
p2177
I143
sS'77716.txt'
p2178
I97
sS'79743.txt'
p2179
I75
sS'80952.txt'
p2180
I198
sS'76961.txt'
p2181
I113
sS'75999.txt'
p2182
I189
sS'75797.txt'
p2183
I192
sS'79896.txt'
p2184
I64
sS'80840.txt'
p2185
I109
sS'79037.txt'
p2186
I418
sS'77339.txt'
p2187
I173
sS'79516.txt'
p2188
I97
sS'79064.txt'
p2189
I243
sS'79264.txt'
p2190
I472
sS'81621.txt'
p2191
I108
sS'78924.txt'
p2192
I95
sS'79032.txt'
p2193
I132
sS'80291.txt'
p2194
I83
sS'76820.txt'
p2195
I52
sS'76622.txt'
p2196
I193
sS'78186.txt'
p2197
I132
sS'80851.txt'
p2198
I186
sS'77212.txt'
p2199
I92
sS'76641.txt'
p2200
I216
sS'80566.txt'
p2201
I121
sS'77834.txt'
p2202
I93
sS'78381.txt'
p2203
I30
sS'76652.txt'
p2204
I174
sS'80829.txt'
p2205
I97
sS'81435.txt'
p2206
I135
sS'78239.txt'
p2207
I48
sS'81182.txt'
p2208
I71
sS'75812.txt'
p2209
I146
sS'79762.txt'
p2210
I69
sS'78007.txt'
p2211
I190
sS'76454.txt'
p2212
I85
sS'77962.txt'
p2213
I94
sS'79553.txt'
p2214
I81
sS'79272.txt'
p2215
I84
sS'79941.txt'
p2216
I60
sS'81551.txt'
p2217
I47
sS'79851.txt'
p2218
I68
sS'78278.txt'
p2219
I71
sS'76788.txt'
p2220
I92
sS'75962.txt'
p2221
I201
sS'79495.txt'
p2222
I87
sS'76369.txt'
p2223
I206
sS'78885.txt'
p2224
I91
sS'79493.txt'
p2225
I197
sS'76050.txt'
p2226
I170
sS'78772.txt'
p2227
I119
sS'80757.txt'
p2228
I65
sS'78931.txt'
p2229
I161
sS'77836.txt'
p2230
I239
sS'81090.txt'
p2231
I291
sS'76585.txt'
p2232
I161
sS'81114.txt'
p2233
I153
sS'77397.txt'
p2234
I159
sS'78519.txt'
p2235
I597
sS'79455.txt'
p2236
I128
sS'80858.txt'
p2237
I431
sS'77763.txt'
p2238
I78
sS'80101.txt'
p2239
I59
sS'79958.txt'
p2240
I393
sS'76873.txt'
p2241
I237
sS'78104.txt'
p2242
I267
sS'76475.txt'
p2243
I122
sS'76194.txt'
p2244
I97
sS'81385.txt'
p2245
I90
sS'76235.txt'
p2246
I108
sS'80181.txt'
p2247
I98
sS'76888.txt'
p2248
I251
sS'81307.txt'
p2249
I83
sS'80091.txt'
p2250
I133
sS'77176.txt'
p2251
I163
sS'78419.txt'
p2252
I348
sS'78377.txt'
p2253
I180
sS'77042.txt'
p2254
I214
sS'80868.txt'
p2255
I152
sS'79832.txt'
p2256
I87
sS'79798.txt'
p2257
I98
sS'80532.txt'
p2258
I80
sS'77655.txt'
p2259
I172
sS'78671.txt'
p2260
I88
sS'77733.txt'
p2261
I105
sS'77935.txt'
p2262
I172
sS'75799.txt'
p2263
I56
sS'80231.txt'
p2264
I69
sS'78599.txt'
p2265
I68
sS'79160.txt'
p2266
I75
sS'76545.txt'
p2267
I244
sS'81164.txt'
p2268
I55
sS'79901.txt'
p2269
I197
sS'79259.txt'
p2270
I95
sS'77952.txt'
p2271
I269
sS'76035.txt'
p2272
I163
sS'81628.txt'
p2273
I153
sS'78307.txt'
p2274
I95
sS'77208.txt'
p2275
I142
sS'81305.txt'
p2276
I73
sS'76218.txt'
p2277
I187
sS'79324.txt'
p2278
I60
sS'81483.txt'
p2279
I91
sS'79786.txt'
p2280
I448
sS'78351.txt'
p2281
I207
sS'77259.txt'
p2282
I178
sS'79314.txt'
p2283
I67
sS'78956.txt'
p2284
I81
sS'77545.txt'
p2285
I87
sS'77155.txt'
p2286
I205
sS'77537.txt'
p2287
I480
sS'79185.txt'
p2288
I89
sS'77219.txt'
p2289
I43
sS'79098.txt'
p2290
I79
sS'77407.txt'
p2291
I87
sS'77326.txt'
p2292
I88
sS'76322.txt'
p2293
I260
sS'81618.txt'
p2294
I155
sS'81451.txt'
p2295
I64
sS'79465.txt'
p2296
I183
sS'77299.txt'
p2297
I76
sS'80751.txt'
p2298
I56
sS'78036.txt'
p2299
I192
sS'81421.txt'
p2300
I68
sS'77356.txt'
p2301
I127
sS'78805.txt'
p2302
I267
sS'80624.txt'
p2303
I84
sS'79080.txt'
p2304
I218
sS'76113.txt'
p2305
I49
sS'81174.txt'
p2306
I155
sS'79029.txt'
p2307
I211
sS'78789.txt'
p2308
I90
sS'77706.txt'
p2309
I205
sS'78687.txt'
p2310
I213
sS'79078.txt'
p2311
I88
sS'79547.txt'
p2312
I89
sS'76324.txt'
p2313
I257
sS'77056.txt'
p2314
I64
sS'78696.txt'
p2315
I337
sS'80964.txt'
p2316
I164
sS'76386.txt'
p2317
I244
sS'78291.txt'
p2318
I55
sS'80761.txt'
p2319
I55
sS'76145.txt'
p2320
I96
sS'81501.txt'
p2321
I2841
sS'79624.txt'
p2322
I114
sS'79644.txt'
p2323
I74
sS'76093.txt'
p2324
I139
sS'80052.txt'
p2325
I70
sS'80595.txt'
p2326
I307
sS'78039.txt'
p2327
I88
sS'78921.txt'
p2328
I193
sS'77958.txt'
p2329
I151
sS'79834.txt'
p2330
I100
sS'76019.txt'
p2331
I580
sS'78840.txt'
p2332
I50
sS'79319.txt'
p2333
I70
sS'77639.txt'
p2334
I92
sS'80060.txt'
p2335
I193
sS'79504.txt'
p2336
I289
sS'75839.txt'
p2337
I91
sS'78056.txt'
p2338
I102
sS'80909.txt'
p2339
I98
sS'76593.txt'
p2340
I357
sS'80875.txt'
p2341
I252
sS'78938.txt'
p2342
I84
sS'80299.txt'
p2343
I385
sS'80741.txt'
p2344
I97
sS'81601.txt'
p2345
I238
sS'75968.txt'
p2346
I191
sS'76487.txt'
p2347
I82
sS'76523.txt'
p2348
I313
sS'80029.txt'
p2349
I78
sS'79072.txt'
p2350
I251
sS'79514.txt'
p2351
I75
sS'79439.txt'
p2352
I102
sS'77153.txt'
p2353
I93
sS'80242.txt'
p2354
I94
sS'77524.txt'
p2355
I94
sS'79042.txt'
p2356
I98
sS'80997.txt'
p2357
I163
sS'79568.txt'
p2358
I81
sS'76052.txt'
p2359
I125
sS'80682.txt'
p2360
I80
sS'76644.txt'
p2361
I85
sS'75769.txt'
p2362
I220
sS'76925.txt'
p2363
I67
sS'77769.txt'
p2364
I102
sS'80203.txt'
p2365
I142
sS'76704.txt'
p2366
I92
sS'79408.txt'
p2367
I84
sS'80463.txt'
p2368
I455
sS'76305.txt'
p2369
I187
sS'78913.txt'
p2370
I183
sS'80930.txt'
p2371
I233
sS'76104.txt'
p2372
I49
sS'78413.txt'
p2373
I94
sS'76276.txt'
p2374
I75
sS'81475.txt'
p2375
I244
sS'79346.txt'
p2376
I172
sS'76264.txt'
p2377
I97
sS'80955.txt'
p2378
I90
sS'75834.txt'
p2379
I232
sS'78501.txt'
p2380
I273
sS'80267.txt'
p2381
I70
sS'81148.txt'
p2382
I44
sS'80078.txt'
p2383
I91
sS'77867.txt'
p2384
I94
sS'79474.txt'
p2385
I230
sS'79804.txt'
p2386
I56
sS'77093.txt'
p2387
I76
sS'77972.txt'
p2388
I55
sS'78081.txt'
p2389
I90
sS'81247.txt'
p2390
I57
sS'76115.txt'
p2391
I80
sS'77345.txt'
p2392
I124
sS'80156.txt'
p2393
I50
sS'76798.txt'
p2394
I64
sS'81527.txt'
p2395
I71
sS'75750.txt'
p2396
I128
sS'80142.txt'
p2397
I66
sS'81507.txt'
p2398
I92
sS'76056.txt'
p2399
I86
sS'79957.txt'
p2400
I89
sS'75895.txt'
p2401
I87
sS'75936.txt'
p2402
I118
sS'77669.txt'
p2403
I306
sS'80512.txt'
p2404
I59
sS'77058.txt'
p2405
I91
sS'81161.txt'
p2406
I152
sS'78766.txt'
p2407
I117
sS'79291.txt'
p2408
I308
sS'79877.txt'
p2409
I49
sS'76950.txt'
p2410
I52
sS'78799.txt'
p2411
I81
sS'81253.txt'
p2412
I244
sS'76010.txt'
p2413
I328
sS'78833.txt'
p2414
I219
sS'81193.txt'
p2415
I220
sS'77019.txt'
p2416
I65
sS'78068.txt'
p2417
I71
sS'78452.txt'
p2418
I414
sS'79588.txt'
p2419
I42
sS'80219.txt'
p2420
I79
sS'79707.txt'
p2421
I61
sS'76774.txt'
p2422
I75
sS'76548.txt'
p2423
I57
sS'81525.txt'
p2424
I92
sS'80411.txt'
p2425
I200
sS'81268.txt'
p2426
I85
sS'78752.txt'
p2427
I304
sS'78884.txt'
p2428
I51
sS'77610.txt'
p2429
I87
sS'76377.txt'
p2430
I91
sS'77852.txt'
p2431
I34
sS'76087.txt'
p2432
I109
sS'81227.txt'
p2433
I74
sS'80722.txt'
p2434
I112
sS'77831.txt'
p2435
I357
sS'75916.txt'
p2436
I199
sS'76270.txt'
p2437
I485
sS'79167.txt'
p2438
I164
sS'76116.txt'
p2439
I37
sS'78444.txt'
p2440
I389
sS'76419.txt'
p2441
I567
sS'79009.txt'
p2442
I65
sS'80740.txt'
p2443
I222
sS'76556.txt'
p2444
I224
sS'77384.txt'
p2445
I233
sS'78434.txt'
p2446
I78
sS'77418.txt'
p2447
I83
sS'81006.txt'
p2448
I493
sS'81358.txt'
p2449
I100
sS'79277.txt'
p2450
I39
sS'81638.txt'
p2451
I158
sS'77488.txt'
p2452
I226
sS'77740.txt'
p2453
I481
sS'79392.txt'
p2454
I67
sS'77106.txt'
p2455
I76
sS'80772.txt'
p2456
I50
sS'79048.txt'
p2457
I97
sS'77574.txt'
p2458
I263
sS'76428.txt'
p2459
I234
sS'81059.txt'
p2460
I90
sS'77887.txt'
p2461
I216
sS'76678.txt'
p2462
I48
sS'79611.txt'
p2463
I237
sS'78533.txt'
p2464
I61
sS'80144.txt'
p2465
I103
sS'78151.txt'
p2466
I563
sS'81610.txt'
p2467
I220
sS'79549.txt'
p2468
I512
sS'81426.txt'
p2469
I95
sS'80071.txt'
p2470
I244
sS'81211.txt'
p2471
I231
sS'78880.txt'
p2472
I95
sS'80318.txt'
p2473
I96
sS'76330.txt'
p2474
I143
sS'76499.txt'
p2475
I94
sS'77643.txt'
p2476
I85
sS'80973.txt'
p2477
I146
sS'80386.txt'
p2478
I275
sS'80559.txt'
p2479
I91
sS'77412.txt'
p2480
I1145
sS'81302.txt'
p2481
I58
sS'79675.txt'
p2482
I113
sS'80094.txt'
p2483
I82
sS'80469.txt'
p2484
I190
sS'79054.txt'
p2485
I67
sS'80284.txt'
p2486
I88
sS'80664.txt'
p2487
I140
sS'79377.txt'
p2488
I271
sS'79727.txt'
p2489
I421
sS'79974.txt'
p2490
I55
sS'80701.txt'
p2491
I257
sS'78556.txt'
p2492
I56
sS'78905.txt'
p2493
I96
sS'76413.txt'
p2494
I76
sS'80278.txt'
p2495
I172
sS'79236.txt'
p2496
I85
sS'79441.txt'
p2497
I212
sS'78643.txt'
p2498
I85
sS'78849.txt'
p2499
I61
sS'77316.txt'
p2500
I241
sS'77246.txt'
p2501
I74
sS'80134.txt'
p2502
I92
sS'80237.txt'
p2503
I95
sS'81392.txt'
p2504
I75
sS'75865.txt'
p2505
I55
sS'77577.txt'
p2506
I65
sS'78511.txt'
p2507
I95
sS'80418.txt'
p2508
I80
sS'78137.txt'
p2509
I89
sS'79757.txt'
p2510
I138
sS'77597.txt'
p2511
I73
sS'77746.txt'
p2512
I89
sS'81456.txt'
p2513
I75
sS'77137.txt'
p2514
I661
sS'76160.txt'
p2515
I190
sS'79233.txt'
p2516
I182
sS'78601.txt'
p2517
I81
sS'77239.txt'
p2518
I141
sS'76741.txt'
p2519
I76
sS'80315.txt'
p2520
I213
sS'79986.txt'
p2521
I159
sS'77977.txt'
p2522
I260
sS'79822.txt'
p2523
I177
sS'78509.txt'
p2524
I260
sS'77985.txt'
p2525
I44
sS'80733.txt'
p2526
I473
sS'77498.txt'
p2527
I75
sS'78942.txt'
p2528
I243
sS'80428.txt'
p2529
I300
sS'80813.txt'
p2530
I161
sS'79620.txt'
p2531
I285
sS'75867.txt'
p2532
I439
sS'76669.txt'
p2533
I70
sS'78062.txt'
p2534
I102
sS'79849.txt'
p2535
I340
sS'79246.txt'
p2536
I96
sS'81431.txt'
p2537
I260
sS'78477.txt'
p2538
I63
sS'77745.txt'
p2539
I244
sS'76271.txt'
p2540
I50
sS'78197.txt'
p2541
I51
sS'78679.txt'
p2542
I95
sS'81308.txt'
p2543
I99
sS'76088.txt'
p2544
I117
sS'78514.txt'
p2545
I93
sS'80872.txt'
p2546
I88
sS'75791.txt'
p2547
I129
sS'78646.txt'
p2548
I62
sS'80696.txt'
p2549
I56
sS'81357.txt'
p2550
I74
sS'75949.txt'
p2551
I44
sS'80058.txt'
p2552
I66
sS'79121.txt'
p2553
I173
sS'78843.txt'
p2554
I55
sS'80969.txt'
p2555
I384
sS'79631.txt'
p2556
I97
sS'80569.txt'
p2557
I226
sS'79882.txt'
p2558
I60
sS'77200.txt'
p2559
I75
sS'78681.txt'
p2560
I90
sS'76002.txt'
p2561
I89
sS'78504.txt'
p2562
I242
sS'76611.txt'
p2563
I225
sS'78985.txt'
p2564
I67
sS'77195.txt'
p2565
I91
sS'81424.txt'
p2566
I100
sS'76790.txt'
p2567
I56
sS'79878.txt'
p2568
I100
sS'78797.txt'
p2569
I125
sS'79249.txt'
p2570
I89
sS'75770.txt'
p2571
I110
sS'75815.txt'
p2572
I181
sS'79649.txt'
p2573
I85
sS'76348.txt'
p2574
I239
sS'80435.txt'
p2575
I106
sS'81412.txt'
p2576
I428
sS'79554.txt'
p2577
I264
sS'81222.txt'
p2578
I84
sS'78369.txt'
p2579
I226
sS'80950.txt'
p2580
I83
sS'81145.txt'
p2581
I121
sS'78583.txt'
p2582
I55
sS'81633.txt'
p2583
I264
sS'78502.txt'
p2584
I193
sS'79903.txt'
p2585
I427
sS'80900.txt'
p2586
I92
sS'78954.txt'
p2587
I136
sS'80081.txt'
p2588
I55
sS'81053.txt'
p2589
I82
sS'81580.txt'
p2590
I143
sS'79354.txt'
p2591
I60
sS'76838.txt'
p2592
I237
sS'78023.txt'
p2593
I88
sS'78489.txt'
p2594
I244
sS'77079.txt'
p2595
I67
sS'78456.txt'
p2596
I75
sS'76361.txt'
p2597
I107
sS'81562.txt'
p2598
I201
sS'79093.txt'
p2599
I67
sS'81322.txt'
p2600
I216
sS'78471.txt'
p2601
I332
sS'75760.txt'
p2602
I43
sS'78982.txt'
p2603
I34
sS'78383.txt'
p2604
I80
sS'76393.txt'
p2605
I214
sS'78916.txt'
p2606
I70
sS'79632.txt'
p2607
I239
sS'76826.txt'
p2608
I160
sS'78589.txt'
p2609
I143
sS'77486.txt'
p2610
I257
sS'81051.txt'
p2611
I244
sS'76998.txt'
p2612
I91
sS'77008.txt'
p2613
I76
sS'81513.txt'
p2614
I95
sS'75981.txt'
p2615
I233
sS'80605.txt'
p2616
I161
sS'79636.txt'
p2617
I111
sS'76233.txt'
p2618
I244
sS'80563.txt'
p2619
I139
sS'77249.txt'
p2620
I191
sS'78005.txt'
p2621
I68
sS'81569.txt'
p2622
I67
sS'79551.txt'
p2623
I68
sS'80118.txt'
p2624
I130
sS'78379.txt'
p2625
I103
sS'79808.txt'
p2626
I203
sS'77493.txt'
p2627
I80
sS'76577.txt'
p2628
I223
sS'77373.txt'
p2629
I99
sS'81092.txt'
p2630
I212
sS'80798.txt'
p2631
I67
sS'77964.txt'
p2632
I61
sS'77457.txt'
p2633
I63
sS'78322.txt'
p2634
I85
sS'77358.txt'
p2635
I67
sS'79484.txt'
p2636
I177
sS'79200.txt'
p2637
I73
sS'75967.txt'
p2638
I103
sS'80097.txt'
p2639
I131
sS'81620.txt'
p2640
I78
sS'80131.txt'
p2641
I123
sS'77392.txt'
p2642
I71
sS'80270.txt'
p2643
I326
sS'80850.txt'
p2644
I213
sS'80183.txt'
p2645
I603
sS'78200.txt'
p2646
I103
sS'79764.txt'
p2647
I127
sS'79298.txt'
p2648
I60
sS'77001.txt'
p2649
I197
sS'80940.txt'
p2650
I60
sS'77099.txt'
p2651
I244
sS'76452.txt'
p2652
I55
sS'77174.txt'
p2653
I249
sS'77514.txt'
p2654
I43
sS'80326.txt'
p2655
I250
sS'78578.txt'
p2656
I94
sS'77401.txt'
p2657
I75
sS'78338.txt'
p2658
I199
sS'79218.txt'
p2659
I100
sS'79334.txt'
p2660
I293
sS'79857.txt'
p2661
I144
sS'81180.txt'
p2662
I113
sS'80790.txt'
p2663
I77
sS'78994.txt'
p2664
I212
sS'79723.txt'
p2665
I87
sS'78673.txt'
p2666
I103
sS'76043.txt'
p2667
I57
sS'77446.txt'
p2668
I572
sS'77895.txt'
p2669
I75
sS'77297.txt'
p2670
I258
sS'77505.txt'
p2671
I59
sS'80545.txt'
p2672
I195
sS'76789.txt'
p2673
I209
sS'77332.txt'
p2674
I76
sS'80628.txt'
p2675
I316
sS'77490.txt'
p2676
I390
sS'78102.txt'
p2677
I62
sS'77735.txt'
p2678
I155
sS'79326.txt'
p2679
I142
sS'80324.txt'
p2680
I118
sS'79097.txt'
p2681
I127
sS'81156.txt'
p2682
I91
sS'81490.txt'
p2683
I70
sS'81578.txt'
p2684
I233
sS'79858.txt'
p2685
I110
sS'79119.txt'
p2686
I129
sS'77050.txt'
p2687
I232
sS'79316.txt'
p2688
I59
sS'78744.txt'
p2689
I60
sS'81290.txt'
p2690
I174
sS'78396.txt'
p2691
I187
sS'80738.txt'
p2692
I106
sS'78297.txt'
p2693
I107
sS'79685.txt'
p2694
I86
sS'80408.txt'
p2695
I110
sS'77282.txt'
p2696
I283
sS'78138.txt'
p2697
I103
sS'75941.txt'
p2698
I265
sS'78719.txt'
p2699
I215
sS'80654.txt'
p2700
I47
sS'77808.txt'
p2701
I88
sS'76250.txt'
p2702
I110
sS'78695.txt'
p2703
I244
sS'80778.txt'
p2704
I163
sS'76649.txt'
p2705
I270
sS'75885.txt'
p2706
I66
sS'79188.txt'
p2707
I295
sS'78590.txt'
p2708
I458
sS'80990.txt'
p2709
I203
sS'77367.txt'
p2710
I160
sS'80533.txt'
p2711
I128
sS'81466.txt'
p2712
I46
sS'80230.txt'
p2713
I185
sS'79117.txt'
p2714
I237
sS'78906.txt'
p2715
I95
sS'78992.txt'
p2716
I148
sS'80616.txt'
p2717
I213
sS'76241.txt'
p2718
I76
sS'77543.txt'
p2719
I55
sS'80763.txt'
p2720
I112
sS'76147.txt'
p2721
I272
sS'76772.txt'
p2722
I56
sS'76861.txt'
p2723
I75
sS'81402.txt'
p2724
I77
sS'79056.txt'
p2725
I129
sS'79506.txt'
p2726
I540
sS'80398.txt'
p2727
I116
sS'81288.txt'
p2728
I84
sS'76684.txt'
p2729
I55
sS'79473.txt'
p2730
I210
sS'81327.txt'
p2731
I337
sS'80877.txt'
p2732
I84
sS'77586.txt'
p2733
I53
sS'76096.txt'
p2734
I262
sS'81631.txt'
p2735
I161
sS'78415.txt'
p2736
I186
sS'79783.txt'
p2737
I102
sS'79535.txt'
p2738
I153
sS'77458.txt'
p2739
I86
sS'80845.txt'
p2740
I86
sS'77218.txt'
p2741
I63
sS'75860.txt'
p2742
I87
sS'78846.txt'
p2743
I85
sS'79211.txt'
p2744
I66
sS'78058.txt'
p2745
I168
sS'79157.txt'
p2746
I92
sS'79237.txt'
p2747
I104
sS'77923.txt'
p2748
I207
sS'77354.txt'
p2749
I50
sS'76711.txt'
p2750
I76
sS'78027.txt'
p2751
I110
sS'79674.txt'
p2752
I67
sS'79431.txt'
p2753
I309
sS'76022.txt'
p2754
I240
sS'78915.txt'
p2755
I59
sS'81066.txt'
p2756
I67
sS'76423.txt'
p2757
I280
sS'79559.txt'
p2758
I106
sS'78686.txt'
p2759
I156
sS'76959.txt'
p2760
I59
sS'78596.txt'
p2761
I49
sS'80807.txt'
p2762
I100
sS'80040.txt'
p2763
I142
sS'78493.txt'
p2764
I112
sS'75988.txt'
p2765
I237
sS'79992.txt'
p2766
I154
sS'76780.txt'
p2767
I92
sS'80932.txt'
p2768
I164
sS'76332.txt'
p2769
I67
sS'76242.txt'
p2770
I601
sS'79886.txt'
p2771
I255
sS'78899.txt'
p2772
I154
sS'77819.txt'
p2773
I156
sS'76293.txt'
p2774
I165
sS'79965.txt'
p2775
I62
sS'77695.txt'
p2776
I43
sS'79687.txt'
p2777
I180
sS'76344.txt'
p2778
I47
sS'79449.txt'
p2779
I200
sS'80466.txt'
p2780
I38
sS'80195.txt'
p2781
I603
sS'77696.txt'
p2782
I481
sS'81587.txt'
p2783
I224
sS'79476.txt'
p2784
I190
sS'80529.txt'
p2785
I61
sS'81533.txt'
p2786
I140
sS'76858.txt'
p2787
I46
sS'77475.txt'
p2788
I74
sS'77919.txt'
p2789
I125
sS'77080.txt'
p2790
I98
sS'77250.txt'
p2791
I67
sS'75752.txt'
p2792
I67
sS'81140.txt'
p2793
I405
sS'80948.txt'
p2794
I463
sS'81146.txt'
p2795
I254
sS'77861.txt'
p2796
I96
sS'79955.txt'
p2797
I214
sS'77772.txt'
p2798
I224
sS'78465.txt'
p2799
I648
sS'76212.txt'
p2800
I258
sS'77900.txt'
p2801
I191
sS'80711.txt'
p2802
I60
sS'81009.txt'
p2803
I138
sS'79293.txt'
p2804
I65
sS'80197.txt'
p2805
I113
sS'77997.txt'
p2806
I227
sS'80540.txt'
p2807
I92
sS'79739.txt'
p2808
I82
sS'77382.txt'
p2809
I117
sS'76149.txt'
p2810
I55
sS'80115.txt'
p2811
I62
sS'81546.txt'
p2812
I87
sS'77768.txt'
p2813
I112
sS'77521.txt'
p2814
I244
sS'80225.txt'
p2815
I49
sS'80150.txt'
p2816
I69
sS'81056.txt'
p2817
I131
sS'79984.txt'
p2818
I198
sS'79628.txt'
p2819
I244
sS'81575.txt'
p2820
I94
sS'77173.txt'
p2821
I347
sS'77165.txt'
p2822
I188
sS'78264.txt'
p2823
I121
sS'80550.txt'
p2824
I147
sS'77095.txt'
p2825
I60
sS'76397.txt'
p2826
I48
sS'77608.txt'
p2827
I98
sS'79253.txt'
p2828
I68
sS'79411.txt'
p2829
I75
sS'79679.txt'
p2830
I50
sS'79330.txt'
p2831
I133
sS'78703.txt'
p2832
I44
sS'78750.txt'
p2833
I97
sS'77223.txt'
p2834
I200
sS'76670.txt'
p2835
I89
sS'75944.txt'
p2836
I91
sS'79058.txt'
p2837
I101
sS'80371.txt'
p2838
I85
sS'78559.txt'
p2839
I113
sS'77112.txt'
p2840
I170
sS'80400.txt'
p2841
I376
sS'75914.txt'
p2842
I193
sS'79681.txt'
p2843
I201
sS'81108.txt'
p2844
I99
sS'75831.txt'
p2845
I157
sS'77233.txt'
p2846
I244
sS'76114.txt'
p2847
I124
sS'77211.txt'
p2848
I96
sS'77083.txt'
p2849
I158
sS'81486.txt'
p2850
I250
sS'77616.txt'
p2851
I66
sS'78266.txt'
p2852
I98
sS'78711.txt'
p2853
I98
sS'77711.txt'
p2854
I112
sS'80926.txt'
p2855
I89
sS'81077.txt'
p2856
I69
sS'77362.txt'
p2857
I118
sS'75894.txt'
p2858
I208
sS'79275.txt'
p2859
I104
sS'78701.txt'
p2860
I55
sS'77479.txt'
p2861
I227
sS'81282.txt'
p2862
I90
sS'75906.txt'
p2863
I51
sS'79729.txt'
p2864
I306
sS'78783.txt'
p2865
I212
sS'76471.txt'
p2866
I96
sS'78375.txt'
p2867
I215
sS'80481.txt'
p2868
I56
sS'81360.txt'
p2869
I483
sS'80275.txt'
p2870
I246
sS'80273.txt'
p2871
I83
sS'79359.txt'
p2872
I155
sS'81192.txt'
p2873
I102
sS'81191.txt'
p2874
I60
sS'80169.txt'
p2875
I164
sS'79772.txt'
p2876
I131
sS'75746.txt'
p2877
I189
sS'78560.txt'
p2878
I147
sS'78183.txt'
p2879
I67
sS'78505.txt'
p2880
I400
sS'79512.txt'
p2881
I167
sS'78867.txt'
p2882
I119
sS'77262.txt'
p2883
I116
sS'80410.txt'
p2884
I325
sS'76009.txt'
p2885
I434
sS'80384.txt'
p2886
I176
sS'76086.txt'
p2887
I75
sS'81589.txt'
p2888
I157
sS'79030.txt'
p2889
I159
sS'76447.txt'
p2890
I56
sS'80323.txt'
p2891
I160
sS'81386.txt'
p2892
I73
sS'80666.txt'
p2893
I75
sS'79375.txt'
p2894
I72
sS'80718.txt'
p2895
I91
sS'79177.txt'
p2896
I73
sS'79528.txt'
p2897
I181
sS'77336.txt'
p2898
I193
sS'79768.txt'
p2899
I99
sS'80879.txt'
p2900
I294
sS'76356.txt'
p2901
I173
sS'77069.txt'
p2902
I388
sS'79944.txt'
p2903
I184
sS'78817.txt'
p2904
I76
sS'79899.txt'
p2905
I221
sS'79443.txt'
p2906
I137
sS'77945.txt'
p2907
I62
sS'76630.txt'
p2908
I308
sS'76764.txt'
p2909
I405
sS'77443.txt'
p2910
I267
sS'78064.txt'
p2911
I185
sS'76553.txt'
p2912
I580
sS'80709.txt'
p2913
I214
sS'81529.txt'
p2914
I137
sS'79323.txt'
p2915
I279
sS'80235.txt'
p2916
I98
sS'81003.txt'
p2917
I58
sS'80886.txt'
p2918
I220
sS'78086.txt'
p2919
I205
sS'77575.txt'
p2920
I95
sS'78903.txt'
p2921
I95
sS'80247.txt'
p2922
I56
sS'76679.txt'
p2923
I83
sS'81406.txt'
p2924
I155
sS'79175.txt'
p2925
I95
sS'80504.txt'
p2926
I129
sS'80106.txt'
p2927
I257
sS'80487.txt'
p2928
I201
sS'78603.txt'
p2929
I166
sS'80967.txt'
p2930
I89
sS'77445.txt'
p2931
I64
sS'75892.txt'
p2932
I235
sS'76127.txt'
p2933
I65
sS'79820.txt'
p2934
I96
sS'76004.txt'
p2935
I57
sS'78815.txt'
p2936
I100
sS'80634.txt'
p2937
I102
sS'79870.txt'
p2938
I203
sS'76042.txt'
p2939
I56
sS'78940.txt'
p2940
I83
sS'76934.txt'
p2941
I88
sS'78185.txt'
p2942
I90
sS'78570.txt'
p2943
I150
sS'80811.txt'
p2944
I695
sS'81069.txt'
p2945
I78
sS'80285.txt'
p2946
I86
sS'76180.txt'
p2947
I66
sS'79860.txt'
p2948
I67
sS'77839.txt'
p2949
I128
sS'80700.txt'
p2950
I152
sS'79961.txt'
p2951
I46
sS'80329.txt'
p2952
I124
sS'76366.txt'
p2953
I567
sS'80089.txt'
p2954
I213
sS'76477.txt'
p2955
I296
sS'81236.txt'
p2956
I162
sS'76803.txt'
p2957
I97
sS'76628.txt'
p2958
I242
sS'81169.txt'
p2959
I95
sS'78841.txt'
p2960
I78
sS'77585.txt'
p2961
I116
sS'80918.txt'
p2962
I160
sS'77247.txt'
p2963
I95
sS'79942.txt'
p2964
I103
sS'78683.txt'
p2965
I74
sS'77535.txt'
p2966
I311
sS'77197.txt'
p2967
I244
sS'80885.txt'
p2968
I74
sS'77651.txt'
p2969
I227
sS'80672.txt'
p2970
I109
sS'78420.txt'
p2971
I110
sS'76693.txt'
p2972
I306
sS'75928.txt'
p2973
I117
sS'79603.txt'
p2974
I238
sS'76614.txt'
p2975
I104
sS'81372.txt'
p2976
I147
sS'78410.txt'
p2977
I61
sS'80405.txt'
p2978
I227
sS'79308.txt'
p2979
I258
sS'80254.txt'
p2980
I79
sS'77518.txt'
p2981
I61
sS'75804.txt'
p2982
I120
sS'76538.txt'
p2983
I43
sS'80524.txt'
p2984
I333
sS'77132.txt'
p2985
I150
sS'81541.txt'
p2986
I90
sS'75778.txt'
p2987
I310
sS'80166.txt'
p2988
I28
sS'80310.txt'
p2989
I120
sS'79395.txt'
p2990
I116
sS'81464.txt'
p2991
I57
sS'81612.txt'
p2992
I325
sS'76346.txt'
p2993
I110
sS'76258.txt'
p2994
I92
sS'77060.txt'
p2995
I38
sS'78361.txt'
p2996
I109
sS'76653.txt'
p2997
I351
sS'79228.txt'
p2998
I90
sS'78732.txt'
p2999
I269
sS'81593.txt'
p3000
I108
sS'76784.txt'
p3001
I277
sS'76023.txt'
p3002
I39
sS'81654.txt'
p3003
I81
sS'76656.txt'
p3004
I92
sS'76209.txt'
p3005
I259
sS'78196.txt'
p3006
I62
sS'79257.txt'
p3007
I86
sS'81128.txt'
p3008
I60
sS'77564.txt'
p3009
I104
sS'80447.txt'
p3010
I51
sS'76879.txt'
p3011
I162
sS'78237.txt'
p3012
I78
sS'77071.txt'
p3013
I344
sS'80343.txt'
p3014
I117
sS'80546.txt'
p3015
I179
sS'81349.txt'
p3016
I164
sS'81539.txt'
p3017
I62
sS'75794.txt'
p3018
I88
sS'79663.txt'
p3019
I99
sS'77433.txt'
p3020
I67
sS'76503.txt'
p3021
I31
sS'80956.txt'
p3022
I364
sS'79883.txt'
p3023
I161
sS'79083.txt'
p3024
I72
sS'78363.txt'
p3025
I66
sS'81350.txt'
p3026
I119
sS'80823.txt'
p3027
I301
sS'80499.txt'
p3028
I106
sS'77009.txt'
p3029
I67
sS'77267.txt'
p3030
I42
sS'75771.txt'
p3031
I69
sS'77329.txt'
p3032
I242
sS'80706.txt'
p3033
I419
sS'78653.txt'
p3034
I222
sS'77526.txt'
p3035
I186
sS'76823.txt'
p3036
I181
sS'75843.txt'
p3037
I31
sS'81470.txt'
p3038
I68
sS'80294.txt'
p3039
I162
sS'77668.txt'
p3040
I52
sS'78450.txt'
p3041
I55
sS'79002.txt'
p3042
I114
sS'76686.txt'
p3043
I66
sS'80110.txt'
p3044
I169
sS'76403.txt'
p3045
I49
sS'78320.txt'
p3046
I62
sS'80116.txt'
p3047
I448
sS'81581.txt'
p3048
I355
sS'80064.txt'
p3049
I180
sS'79695.txt'
p3050
I221
sS'76795.txt'
p3051
I166
sS'78623.txt'
p3052
I137
sS'79383.txt'
p3053
I60
sS'77078.txt'
p3054
I76
sS'78391.txt'
p3055
I95
sS'76621.txt'
p3056
I44
sS'78298.txt'
p3057
I70
sS'78962.txt'
p3058
I65
sS'77390.txt'
p3059
I95
sS'77961.txt'
p3060
I173
sS'77743.txt'
p3061
I53
sS'81554.txt'
p3062
I90
sS'81186.txt'
p3063
I377
sS'78202.txt'
p3064
I113
sS'77199.txt'
p3065
I471
sS'81179.txt'
p3066
I119
sS'76480.txt'
p3067
I83
sS'76405.txt'
p3068
I44
sS'81429.txt'
p3069
I145
sS'80490.txt'
p3070
I133
sS'78261.txt'
p3071
I272
sS'77305.txt'
p3072
I461
sS'76392.txt'
p3073
I579
sS'76055.txt'
p3074
I127
sS'78826.txt'
p3075
I264
sS'77215.txt'
p3076
I116
sS'75983.txt'
p3077
I149
sS'80561.txt'
p3078
I87
sS'77048.txt'
p3079
I67
sS'79801.txt'
p3080
I89
sS'81577.txt'
p3081
I113
sS'78974.txt'
p3082
I180
sS'78190.txt'
p3083
I211
sS'77800.txt'
p3084
I123
sS'76757.txt'
p3085
I298
sS'81543.txt'
p3086
I91
sS'81262.txt'
p3087
I319
sS'79142.txt'
p3088
I288
sS'78161.txt'
p3089
I131
sS'80776.txt'
p3090
I60
sS'76236.txt'
p3091
I88
sS'80644.txt'
p3092
I260
sS'80158.txt'
p3093
I102
sS'81340.txt'
p3094
I313
sS'79562.txt'
p3095
I55
sS'80206.txt'
p3096
I87
sS'77492.txt'
p3097
I96
sS'78786.txt'
p3098
I169
sS'78780.txt'
p3099
I97
sS'81049.txt'
p3100
I320
sS'81138.txt'
p3101
I199
sS'76057.txt'
p3102
I104
sS'80515.txt'
p3103
I99
sS'75965.txt'
p3104
I122
sS'78746.txt'
p3105
I84
sS'76220.txt'
p3106
I99
sS'75777.txt'
p3107
I115
sS'76870.txt'
p3108
I153
sS'76516.txt'
p3109
I39
sS'76417.txt'
p3110
I67
sS'77730.txt'
p3111
I67
sS'78976.txt'
p3112
I276
sS'76319.txt'
p3113
I30
sS'81031.txt'
p3114
I84
sS'80745.txt'
p3115
I46
sS'76041.txt'
p3116
I91
sS'78373.txt'
p3117
I44
sS'78615.txt'
p3118
I56
sS'79904.txt'
p3119
I183
sS'79507.txt'
p3120
I83
sS'79639.txt'
p3121
I257
sS'77995.txt'
p3122
I79
sS'76178.txt'
p3123
I280
sS'81252.txt'
p3124
I75
sS'77098.txt'
p3125
I422
sS'81382.txt'
p3126
I296
sS'77891.txt'
p3127
I97
sS'76881.txt'
p3128
I283
sS'79864.txt'
p3129
I104
sS'76797.txt'
p3130
I231
sS'77936.txt'
p3131
I74
sS'76554.txt'
p3132
I225
sS'81315.txt'
p3133
I97
sS'76946.txt'
p3134
I95
sS'75920.txt'
p3135
I145
sS'75880.txt'
p3136
I201
sS'81598.txt'
p3137
I97
sS'76608.txt'
p3138
I66
sS'78904.txt'
p3139
I428
sS'77440.txt'
p3140
I137
sS'76339.txt'
p3141
I98
sS'80837.txt'
p3142
I102
sS'77504.txt'
p3143
I91
sS'79704.txt'
p3144
I68
sS'79807.txt'
p3145
I60
sS'77274.txt'
p3146
I88
sS'79172.txt'
p3147
I88
sS'77104.txt'
p3148
I96
sS'77333.txt'
p3149
I100
sS'81511.txt'
p3150
I473
sS'78792.txt'
p3151
I87
sS'81644.txt'
p3152
I87
sS'80695.txt'
p3153
I105
sS'78033.txt'
p3154
I67
sS'81332.txt'
p3155
I97
sS'78495.txt'
p3156
I152
sS'76094.txt'
p3157
I146
sS'76777.txt'
p3158
I219
sS'77840.txt'
p3159
I77
sS'78061.txt'
p3160
I98
sS'80346.txt'
p3161
I90
sS'76472.txt'
p3162
I90
sS'80171.txt'
p3163
I150
sS'77169.txt'
p3164
I91
sS'79214.txt'
p3165
I67
sS'77055.txt'
p3166
I421
sS'78292.txt'
p3167
I161
sS'77894.txt'
p3168
I66
sS'76666.txt'
p3169
I595
sS'81280.txt'
p3170
I156
sS'75904.txt'
p3171
I51
sS'76383.txt'
p3172
I333
sS'76919.txt'
p3173
I399
sS'77809.txt'
p3174
I59
sS'76119.txt'
p3175
I289
sS'79934.txt'
p3176
I141
sS'77450.txt'
p3177
I135
sS'81595.txt'
p3178
I79
sS'79433.txt'
p3179
I118
sS'76567.txt'
p3180
I90
sS'79014.txt'
p3181
I119
sS'77705.txt'
p3182
I166
sS'79880.txt'
p3183
I178
sS'78098.txt'
p3184
I99
sS'80304.txt'
p3185
I101
sS'78314.txt'
p3186
I63
sS'80544.txt'
p3187
I323
sS'76819.txt'
p3188
I246
sS'78122.txt'
p3189
I152
sS'79990.txt'
p3190
I157
sS'79520.txt'
p3191
I139
sS'81502.txt'
p3192
I75
sS'76240.txt'
p3193
I67
sS'80871.txt'
p3194
I67
sS'76528.txt'
p3195
I213
sS'81417.txt'
p3196
I98
sS'81060.txt'
p3197
I206
sS'77402.txt'
p3198
I99
sS'76860.txt'
p3199
I67
sS'81645.txt'
p3200
I180
sS'77694.txt'
p3201
I70
sS'76337.txt'
p3202
I255
sS'77888.txt'
p3203
I167
sS'77135.txt'
p3204
I149
sS'76926.txt'
p3205
I75
sS'80558.txt'
p3206
I233
sS'77633.txt'
p3207
I110
sS'81458.txt'
p3208
I72
sS'75780.txt'
p3209
I569
sS'77858.txt'
p3210
I45
sS'80687.txt'
p3211
I178
sS'80257.txt'
p3212
I194
sS'78021.txt'
p3213
I76
sS'77538.txt'
p3214
I149
sS'76444.txt'
p3215
I66
sS'80731.txt'
p3216
I144
sS'77583.txt'
p3217
I313
sS'80521.txt'
p3218
I59
sS'78467.txt'
p3219
I115
sS'80527.txt'
p3220
I96
sS'79481.txt'
p3221
I146
sS'76047.txt'
p3222
I78
sS'77922.txt'
p3223
I155
sS'79286.txt'
p3224
I84
sS'81436.txt'
p3225
I167
sS'78726.txt'
p3226
I230
sS'81177.txt'
p3227
I118
sS'81552.txt'
p3228
I101
sS'76391.txt'
p3229
I67
sS'77864.txt'
p3230
I213
sS'75954.txt'
p3231
I149
sS'81616.txt'
p3232
I397
sS'77523.txt'
p3233
I152
sS'80714.txt'
p3234
I105
sS'77285.txt'
p3235
I55
sS'77511.txt'
p3236
I81
sS'76466.txt'
p3237
I54
sS'78364.txt'
p3238
I244
sS'76781.txt'
p3239
I61
sS'77340.txt'
p3240
I196
sS'80596.txt'
p3241
I493
sS'76172.txt'
p3242
I48
sS'76721.txt'
p3243
I195
sS'79734.txt'
p3244
I174
sS'77578.txt'
p3245
I82
sS'80464.txt'
p3246
I87
sS'77370.txt'
p3247
I95
sS'80838.txt'
p3248
I209
sS'80178.txt'
p3249
I244
sS'76886.txt'
p3250
I76
sS'80216.txt'
p3251
I87
sS'77649.txt'
p3252
I102
sS'79007.txt'
p3253
I158
sS'78763.txt'
p3254
I74
sS'79155.txt'
p3255
I185
sS'80583.txt'
p3256
I212
sS'76647.txt'
p3257
I31
sS'81103.txt'
p3258
I106
sS'79295.txt'
p3259
I247
sS'77782.txt'
p3260
I262
sS'80141.txt'
p3261
I450
sS'77081.txt'
p3262
I235
sS'80902.txt'
p3263
I91
sS'80377.txt'
p3264
I84
sS'77773.txt'
p3265
I76
sS'76170.txt'
p3266
I72
sS'76866.txt'
p3267
I96
sS'80432.txt'
p3268
I105
sS'75868.txt'
p3269
I486
sS'81545.txt'
p3270
I139
sS'76793.txt'
p3271
I351
sS'76953.txt'
p3272
I57
sS'80998.txt'
p3273
I78
sS'76530.txt'
p3274
I94
sS'77613.txt'
p3275
I43
sS'81420.txt'
p3276
I139
sS'80518.txt'
p3277
I68
sS'80923.txt'
p3278
I234
sS'80600.txt'
p3279
I85
sS'79336.txt'
p3280
I338
sS'76046.txt'
p3281
I39
sS'79513.txt'
p3282
I63
sS'75762.txt'
p3283
I188
sS'76249.txt'
p3284
I125
sS'78709.txt'
p3285
I83
sS'79770.txt'
p3286
I265
sS'80551.txt'
p3287
I105
sS'77924.txt'
p3288
I147
sS'77428.txt'
p3289
I55
sS'79413.txt'
p3290
I99
sS'81463.txt'
p3291
I143
sS'80264.txt'
p3292
I54
sS'76120.txt'
p3293
I344
sS'77851.txt'
p3294
I63
sS'78568.txt'
p3295
I70
sS'77330.txt'
p3296
I103
sS'76231.txt'
p3297
I42
sS'81246.txt'
p3298
I260
sS'80721.txt'
p3299
I73
sS'76671.txt'
p3300
I164
sS'75825.txt'
p3301
I61
sS'75743.txt'
p3302
I221
sS'76903.txt'
p3303
I88
sS'76745.txt'
p3304
I231
sS'81261.txt'
p3305
I103
sS'80129.txt'
p3306
I358
sS'77113.txt'
p3307
I87
sS'76284.txt'
p3308
I585
sS'80659.txt'
p3309
I244
sS'77551.txt'
p3310
I103
sS'79051.txt'
p3311
I83
sS'78869.txt'
p3312
I58
sS'80943.txt'
p3313
I167
sS'77210.txt'
p3314
I57
sS'80445.txt'
p3315
I191
sS'77036.txt'
p3316
I52
sS'78154.txt'
p3317
I145
sS'80916.txt'
p3318
I126
sS'77427.txt'
p3319
I84
sS'78576.txt'
p3320
I147
sS'78388.txt'
p3321
I246
sS'76122.txt'
p3322
I88
sS'78164.txt'
p3323
I56
sS'78877.txt'
p3324
I48
sS'76551.txt'
p3325
I67
sS'80500.txt'
p3326
I171
sS'79888.txt'
p3327
I121
sS'76857.txt'
p3328
I253
sS'76533.txt'
p3329
I143
sS'78084.txt'
p3330
I91
sS'76509.txt'
p3331
I75
sS'77954.txt'
p3332
I64
sS'76067.txt'
p3333
I76
sS'78529.txt'
p3334
I65
sS'79321.txt'
p3335
I191
sS'75841.txt'
p3336
I86
sS'78258.txt'
p3337
I59
sS'80168.txt'
p3338
I71
sS'79817.txt'
p3339
I85
sS'77775.txt'
p3340
I86
sS'79971.txt'
p3341
I79
sS'77640.txt'
p3342
I214
sS'77191.txt'
p3343
I226
sS'80970.txt'
p3344
I315
sS'78282.txt'
p3345
I62
sS'78479.txt'
p3346
I203
sS'76936.txt'
p3347
I55
sS'78428.txt'
p3348
I102
sS'78777.txt'
p3349
I85
sS'81095.txt'
p3350
I102
sS'80848.txt'
p3351
I141
sS'79425.txt'
p3352
I61
sS'77088.txt'
p3353
I67
sS'81387.txt'
p3354
I91
sS'76182.txt'
p3355
I616
sS'77033.txt'
p3356
I138
sS'78042.txt'
p3357
I76
sS'80233.txt'
p3358
I88
sS'79619.txt'
p3359
I81
sS'77292.txt'
p3360
I80
sS'77170.txt'
p3361
I196
sS'76728.txt'
p3362
I86
sS'77563.txt'
p3363
I78
sS'77052.txt'
p3364
I50
sS'78169.txt'
p3365
I191
sS'80477.txt'
p3366
I67
sS'77944.txt'
p3367
I46
sS'78734.txt'
p3368
I96
sS'80548.txt'
p3369
I202
sS'76399.txt'
p3370
I50
sS'77878.txt'
p3371
I80
sS'80172.txt'
p3372
I90
sS'80708.txt'
p3373
I360
sS'80793.txt'
p3374
I79
sS'77109.txt'
p3375
I229
sS'75889.txt'
p3376
I174
sS'79826.txt'
p3377
I188
sS'76568.txt'
p3378
I91
sS'80887.txt'
p3379
I56
sS'75930.txt'
p3380
I104
sS'80656.txt'
p3381
I174
sS'81124.txt'
p3382
I106
sS'78422.txt'
p3383
I149
sS'80965.txt'
p3384
I607
sS'76851.txt'
p3385
I312
sS'79243.txt'
p3386
I77
sS'81212.txt'
p3387
I114
sS'79665.txt'
p3388
I79
sS'78412.txt'
p3389
I135
sS'76782.txt'
p3390
I90
sS'78758.txt'
p3391
I76
sS'75873.txt'
p3392
I67
sS'80627.txt'
p3393
I240
sS'76290.txt'
p3394
I51
sS'80293.txt'
p3395
I94
sS'76314.txt'
p3396
I161
sS'81652.txt'
p3397
I280
sS'77130.txt'
p3398
I50
sS'80677.txt'
p3399
I89
sS'76457.txt'
p3400
I257
sS'79967.txt'
p3401
I151
sS'79397.txt'
p3402
I54
sS'76696.txt'
p3403
I362
sS'77160.txt'
p3404
I234
sS'76563.txt'
p3405
I509
sS'76001.txt'
p3406
I86
sS'77379.txt'
p3407
I72
sS'81033.txt'
p3408
I177
sS'77205.txt'
p3409
I67
sS'79300.txt'
p3410
I50
sS'78555.txt'
p3411
I91
sS'78249.txt'
p3412
I107
sS'78685.txt'
p3413
I50
sS'79732.txt'
p3414
I91
sS'77253.txt'
p3415
I162
sS'77720.txt'
p3416
I80
sS'80509.txt'
p3417
I46
sS'81237.txt'
p3418
I83
sS'81242.txt'
p3419
I247
sS'79195.txt'
p3420
I325
sS'79744.txt'
p3421
I67
sS'77629.txt'
p3422
I60
sS'77584.txt'
p3423
I186
sS'79460.txt'
p3424
I143
sS'76702.txt'
p3425
I81
sS'80919.txt'
p3426
I95
sS'80368.txt'
p3427
I55
sS'77294.txt'
p3428
I74
sS'81374.txt'
p3429
I211
sS'78522.txt'
p3430
I95
sS'80847.txt'
p3431
I57
sS'75922.txt'
p3432
I78
sS'78231.txt'
p3433
I65
sS'79351.txt'
p3434
I146
sS'77650.txt'
p3435
I55
sS'79302.txt'
p3436
I110
sS'76196.txt'
p3437
I168
sS'80498.txt'
p3438
I142
sS'80767.txt'
p3439
I56
sS'80724.txt'
p3440
I67
sS'78923.txt'
p3441
I244
sS'76200.txt'
p3442
I103
sS'80296.txt'
p3443
I201
sS'81365.txt'
p3444
I128
sS'78820.txt'
p3445
I245
sS'77978.txt'
p3446
I90
sS'76327.txt'
p3447
I100
sS'80826.txt'
p3448
I82
sS'77338.txt'
p3449
I141
sS'79251.txt'
p3450
I244
sS'75779.txt'
p3451
I96
sS'79829.txt'
p3452
I350
sS'80251.txt'
p3453
I398
sS'79697.txt'
p3454
I171
sS'77559.txt'
p3455
I75
sS'81249.txt'
p3456
I365
sS'80127.txt'
p3457
I107
sS'76898.txt'
p3458
I146
sS'76511.txt'
p3459
I56
sS'76418.txt'
p3460
I74
sS'79891.txt'
p3461
I138
sS'80892.txt'
p3462
I330
sS'77213.txt'
p3463
I227
sS'81041.txt'
p3464
I98
sS'77951.txt'
p3465
I61
sS'80567.txt'
p3466
I201
sS'79593.txt'
p3467
I94
sS'78380.txt'
p3468
I224
sS'76482.txt'
p3469
I242
sS'77144.txt'
p3470
I58
sS'77070.txt'
p3471
I131
sS'77307.txt'
p3472
I198
sS'77120.txt'
p3473
I128
sS'76177.txt'
p3474
I603
sS'80306.txt'
p3475
I55
sS'78521.txt'
p3476
I101
sS'76261.txt'
p3477
I74
sS'75849.txt'
p3478
I84
sS'78048.txt'
p3479
I79
sS'78160.txt'
p3480
I136
sS'78459.txt'
p3481
I190
sS'77764.txt'
p3482
I80
sS'80936.txt'
p3483
I117
sS'80975.txt'
p3484
I96
sS'78613.txt'
p3485
I85
sS'76848.txt'
p3486
I187
sS'75963.txt'
p3487
I96
sS'76234.txt'
p3488
I94
sS'76970.txt'
p3489
I150
sS'76796.txt'
p3490
I84
sS'77837.txt'
p3491
I172
sS'76743.txt'
p3492
I147
sS'77396.txt'
p3493
I100
sS'78418.txt'
p3494
I60
sS'79657.txt'
p3495
I96
sS'75782.txt'
p3496
I92
sS'76109.txt'
p3497
I56
sS'76459.txt'
p3498
I156
sS'79144.txt'
p3499
I55
sS'80065.txt'
p3500
I116
sS'77656.txt'
p3501
I301
sS'79852.txt'
p3502
I86
sS'78779.txt'
p3503
I48
sS'75756.txt'
p3504
I157
sS'81597.txt'
p3505
I98
sS'76534.txt'
p3506
I175
sS'81384.txt'
p3507
I94
sS'80853.txt'
p3508
I91
sS'81163.txt'
p3509
I261
sS'79594.txt'
p3510
I84
sS'79906.txt'
p3511
I104
sS'77591.txt'
p3512
I354
sS'76842.txt'
p3513
I131
sS'76066.txt'
p3514
I165
sS'79345.txt'
p3515
I67
sS'81039.txt'
p3516
I162
sS'81495.txt'
p3517
I93
sS'80947.txt'
p3518
I100
sS'77688.txt'
p3519
I234
sS'78107.txt'
p3520
I63
sS'81484.txt'
p3521
I386
sS'81571.txt'
p3522
I92
sS'76378.txt'
p3523
I53
sS'76889.txt'
p3524
I212
sS'75882.txt'
p3525
I69
sS'81228.txt'
p3526
I75
sS'80352.txt'
p3527
I97
sS'79839.txt'
p3528
I85
sS'77801.txt'
p3529
I194
sS'81081.txt'
p3530
I221
sS'76034.txt'
p3531
I83
sS'80051.txt'
p3532
I84
sS'81304.txt'
p3533
I75
sS'80645.txt'
p3534
I85
sS'76522.txt'
p3535
I87
sS'75813.txt'
p3536
I85
sS'77709.txt'
p3537
I339
sS'79654.txt'
p3538
I173
sS'81048.txt'
p3539
I276
sS'78031.txt'
p3540
I103
sS'79609.txt'
p3541
I207
sS'81556.txt'
p3542
I252
sS'76976.txt'
p3543
I96
sS'81623.txt'
p3544
I118
sS'80623.txt'
p3545
I80
sS'76215.txt'
p3546
I39
sS'78063.txt'
p3547
I302
sS'81405.txt'
p3548
I252
sS'80680.txt'
p3549
I200
sS'76707.txt'
p3550
I55
sS'77057.txt'
p3551
I81
sS'81477.txt'
p3552
I91
sS'79862.txt'
p3553
I199
sS'77667.txt'
p3554
I66
sS'79297.txt'
p3555
I219
sS'77065.txt'
p3556
I229
sS'79579.txt'
p3557
I88
sS'76412.txt'
p3558
I98
sS'77399.txt'
p3559
I103
sS'79638.txt'
p3560
I109
sS'77546.txt'
p3561
I52
sS'78135.txt'
p3562
I165
sS'81078.txt'
p3563
I72
sS'79068.txt'
p3564
I190
sS'78670.txt'
p3565
I64
sS'77439.txt'
p3566
I71
sS'80063.txt'
p3567
I226
sS'78269.txt'
p3568
I67
sS'77536.txt'
p3569
I438
sS'75901.txt'
p3570
I81
sS'77321.txt'
p3571
I464
sS'81314.txt'
p3572
I138
sS'76073.txt'
p3573
I577
sS'76594.txt'
p3574
I73
sS'76616.txt'
p3575
I72
sS'77441.txt'
p3576
I59
sS'80836.txt'
p3577
I98
sS'78133.txt'
p3578
I92
sS'76092.txt'
p3579
I130
sS'77027.txt'
p3580
I101
sS'78661.txt'
p3581
I190
sS'79428.txt'
p3582
I86
sS'75827.txt'
p3583
I204
sS'76474.txt'
p3584
I67
sS'77152.txt'
p3585
I76
sS'78312.txt'
p3586
I202
sS'76416.txt'
p3587
I55
sS'79544.txt'
p3588
I167
sS'79538.txt'
p3589
I88
sS'80245.txt'
p3590
I106
sS'80662.txt'
p3591
I86
sS'77319.txt'
p3592
I90
sS'78619.txt'
p3593
I108
sS'78399.txt'
p3594
I88
sS'77348.txt'
p3595
I89
sS'81065.txt'
p3596
I340
sS'80685.txt'
p3597
I171
sS'80392.txt'
p3598
I163
sS'78764.txt'
p3599
I170
sS'78490.txt'
p3600
I97
sS'77581.txt'
p3601
I210
sS'80174.txt'
p3602
I451
sS'75788.txt'
p3603
I40
sS'79284.txt'
p3604
I60
sS'77128.txt'
p3605
I154
sS'78124.txt'
p3606
I176
sS'76634.txt'
p3607
I409
sS'77661.txt'
p3608
I87
sS'80530.txt'
p3609
I96
sS'77784.txt'
p3610
I217
sS'80716.txt'
p3611
I396
sS'80046.txt'
p3612
I202
sS'77832.txt'
p3613
I108
sS'80462.txt'
p3614
I236
sS'77975.txt'
p3615
I176
sS'80214.txt'
p3616
I244
sS'80503.txt'
p3617
I129
sS'79561.txt'
p3618
I199
sS'79305.txt'
p3619
I84
sS'78280.txt'
p3620
I278
sS'78662.txt'
p3621
I51
sS'78047.txt'
p3622
I71
sS'79505.txt'
p3623
I173
sS'79079.txt'
p3624
I193
sS'76335.txt'
p3625
I195
sS'78870.txt'
p3626
I78
sS'78028.txt'
p3627
I91
sS'80815.txt'
p3628
I103
sS'80856.txt'
p3629
I84
sS'78873.txt'
p3630
I73
sS'79106.txt'
p3631
I278
sS'78761.txt'
p3632
I356
sS'77389.txt'
p3633
I102
sS'80007.txt'
p3634
I342
sS'81328.txt'
p3635
I103
sS'76406.txt'
p3636
I66
sS'80256.txt'
p3637
I214
sS'79139.txt'
p3638
I85
sS'78920.txt'
p3639
I432
sS'78069.txt'
p3640
I262
sS'79572.txt'
p3641
I87
sS'77525.txt'
p3642
I135
sS'76578.txt'
p3643
I56
sS'79709.txt'
p3644
I278
sS'77030.txt'
p3645
I136
sS'79001.txt'
p3646
I339
sS'80748.txt'
p3647
I237
sS'76807.txt'
p3648
I55
sS'77090.txt'
p3649
I43
sS'79120.txt'
p3650
I190
sS'77146.txt'
p3651
I45
sS'81606.txt'
p3652
I204
sS'80921.txt'
p3653
I396
sS'80372.txt'
p3654
I806
sS'75955.txt'
p3655
I104
sS'81267.txt'
p3656
I72
sS'76370.txt'
p3657
I190
sS'81301.txt'
p3658
I244
sS'81220.txt'
p3659
I156
sS'81150.txt'
p3660
I119
sS'79824.txt'
p3661
I328
sS'78879.txt'
p3662
I580
sS'80996.txt'
p3663
I244
sS'79701.txt'
p3664
I77
sS'77909.txt'
p3665
I122
sS'77372.txt'
p3666
I43
sS'78144.txt'
p3667
I139
sS'80079.txt'
p3668
I61
sS'76544.txt'
p3669
I92
sS'78832.txt'
p3670
I534
sS'77022.txt'
p3671
I118
sS'75741.txt'
p3672
I67
sS'78250.txt'
p3673
I103
sS'76445.txt'
p3674
I566
sS'79979.txt'
p3675
I201
sS'80582.txt'
p3676
I77
sS'76354.txt'
p3677
I194
sS'79571.txt'
p3678
I312
sS'78848.txt'
p3679
I172
sS'76905.txt'
p3680
I80
sS'78156.txt'
p3681
I153
sS'77059.txt'
p3682
I49
sS'76279.txt'
p3683
I143
sS'76824.txt'
p3684
I204
sS'80076.txt'
p3685
I93
sS'79423.txt'
p3686
I53
sS'80440.txt'
p3687
I36
sS'78694.txt'
p3688
I288
sS'77678.txt'
p3689
I70
sS'76508.txt'
p3690
I65
sS'80151.txt'
p3691
I223
sS'81058.txt'
p3692
I163
sS'76723.txt'
p3693
I252
sS'79526.txt'
p3694
I108
sS'79376.txt'
p3695
I50
sS'76248.txt'
p3696
I65
sS'81166.txt'
p3697
I67
sS'79815.txt'
p3698
I85
sS'81160.txt'
p3699
I230
sS'79973.txt'
p3700
I290
sS'77718.txt'
p3701
I68
sS'78753.txt'
p3702
I214
sS'81508.txt'
p3703
I95
sS'77966.txt'
p3704
I279
sS'77107.txt'
p3705
I67
sS'81449.txt'
p3706
I125
sS'75844.txt'
p3707
I67
sS'80387.txt'
p3708
I176
sS'77880.txt'
p3709
I153
sS'76085.txt'
p3710
I131
sS'77311.txt'
p3711
I180
sS'76402.txt'
p3712
I47
sS'81438.txt'
p3713
I226
sS'81097.txt'
p3714
I70
sS'80133.txt'
p3715
I651
sS'81260.txt'
p3716
I224
sS'79700.txt'
p3717
I124
sS'78327.txt'
p3718
I244
sS'77672.txt'
p3719
I156
sS'80867.txt'
p3720
I85
sS'79190.txt'
p3721
I108
sS'80942.txt'
p3722
I434
sS'77747.txt'
p3723
I273
sS'78040.txt'
p3724
I201
sS'77419.txt'
p3725
I291
sS'77984.txt'
p3726
I152
sS'80576.txt'
p3727
I405
sS'80484.txt'
p3728
I104
sS'79489.txt'
p3729
I278
sS'81409.txt'
p3730
I73
sS'79587.txt'
p3731
I252
sS'80773.txt'
p3732
I99
sS'75992.txt'
p3733
I100
sS'78736.txt'
p3734
I172
sS'79511.txt'
p3735
I55
sS'81361.txt'
p3736
I153
sS'80018.txt'
p3737
I174
sS'76304.txt'
p3738
I603
sS'78210.txt'
p3739
I112
sS'77576.txt'
p3740
I135
sS'78573.txt'
p3741
I71
sS'77178.txt'
p3742
I325
sS'76808.txt'
p3743
I76
sS'75932.txt'
p3744
I59
sS'80686.txt'
p3745
I251
sS'79339.txt'
p3746
I88
sS'78886.txt'
p3747
I36
sS'81126.txt'
p3748
I55
sS'77277.txt'
p3749
I92
sS'81547.txt'
p3750
I108
sS'80057.txt'
p3751
I266
sS'76142.txt'
p3752
I90
sS'75972.txt'
p3753
I91
sS'79616.txt'
p3754
I58
sS'78771.txt'
p3755
I182
sS'78259.txt'
p3756
I102
sS'79241.txt'
p3757
I85
sS'76753.txt'
p3758
I74
sS'78288.txt'
p3759
I96
sS'77737.txt'
p3760
I105
sS'80413.txt'
p3761
I259
sS'79213.txt'
p3762
I75
sS'81395.txt'
p3763
I100
sS'77499.txt'
p3764
I67
sS'80675.txt'
p3765
I121
sS'76575.txt'
p3766
I66
sS'77898.txt'
p3767
I186
sS'77797.txt'
p3768
I287
sS'79340.txt'
p3769
I48
sS'78769.txt'
p3770
I67
sS'80607.txt'
p3771
I84
sS'77906.txt'
p3772
I55
sS'75866.txt'
p3773
I247
sS'76144.txt'
p3774
I91
sS'77394.txt'
p3775
I281
sS'80593.txt'
p3776
I175
sS'77194.txt'
p3777
I42
sS'81461.txt'
p3778
I536
sS'77089.txt'
p3779
I59
sS'79440.txt'
p3780
I288
sS'78790.txt'
p3781
I72
sS'78053.txt'
p3782
I67
sS'79059.txt'
p3783
I49
sS'80732.txt'
p3784
I193
sS'77171.txt'
p3785
I107
sS'80208.txt'
p3786
I64
sS'81036.txt'
p3787
I92
sS'80895.txt'
p3788
I87
sS'78497.txt'
p3789
I88
sS'77244.txt'
p3790
I349
sS'80476.txt'
p3791
I75
sS'78208.txt'
p3792
I87
sS'77471.txt'
p3793
I84
sS'80173.txt'
p3794
I83
sS'76769.txt'
p3795
I191
sS'81656.txt'
p3796
I393
sS'80775.txt'
p3797
I75
sS'80077.txt'
p3798
I95
sS'79451.txt'
p3799
I49
sS'80309.txt'
p3800
I242
sS'76277.txt'
p3801
I240
sS'77136.txt'
p3802
I95
sS'79353.txt'
p3803
I361
sS'78045.txt'
p3804
I210
sS'79742.txt'
p3805
I577
sS'76942.txt'
p3806
I230
sS'76274.txt'
p3807
I85
sS'76770.txt'
p3808
I243
sS'77003.txt'
p3809
I84
sS'78822.txt'
p3810
I98
sS'76128.txt'
p3811
I75
sS'80824.txt'
p3812
I76
sS'78234.txt'
p3813
I475
sS'75872.txt'
p3814
I64
sS'76015.txt'
p3815
I56
sS'78130.txt'
p3816
I89
sS'77465.txt'
p3817
I52
sS'76193.txt'
p3818
I208
sS'78518.txt'
p3819
I55
sS'81325.txt'
p3820
I124
sS'76958.txt'
p3821
I161
sS'79660.txt'
p3822
I160
sS'77717.txt'
p3823
I147
sS'76920.txt'
p3824
I282
sS'80124.txt'
p3825
I171
sS'78515.txt'
p3826
I150
sS'80253.txt'
p3827
I237
sS'78925.txt'
p3828
I77
sS'78678.txt'
p3829
I84
sS'76999.txt'
p3830
I105
sS'77970.txt'
p3831
I102
sS'80953.txt'
p3832
I60
sS'77976.txt'
p3833
I65
sS'80261.txt'
p3834
I136
sS'79466.txt'
p3835
I85
sS'77844.txt'
p3836
I60
sS'77251.txt'
p3837
I75
sS'78629.txt'
p3838
I380
sS'80901.txt'
p3839
I295
sS'78140.txt'
p3840
I96
sS'78955.txt'
p3841
I391
sS'80086.txt'
p3842
I132
sS'76101.txt'
p3843
I57
sS'79201.txt'
p3844
I195
sS'76500.txt'
p3845
I78
sS'79647.txt'
p3846
I436
sS'76890.txt'
p3847
I126
sS'81050.txt'
p3848
I167
sS'78523.txt'
p3849
I92
sS'76465.txt'
p3850
I82
sS'76071.txt'
p3851
I165
sS'79452.txt'
p3852
I149
sS'80182.txt'
p3853
I368
sS'79483.txt'
p3854
I142
sS'79846.txt'
p3855
I57
sS'76921.txt'
p3856
I55
sS'79258.txt'
p3857
I59
sS'75761.txt'
p3858
I64
sS'76080.txt'
p3859
I114
sS'80766.txt'
p3860
I109
sS'80303.txt'
p3861
I83
sS'80090.txt'
p3862
I405
sS'77177.txt'
p3863
I177
sS'81432.txt'
p3864
I50
sS'76829.txt'
p3865
I85
sS'81441.txt'
p3866
I247
sS'76602.txt'
p3867
I32
sS'81183.txt'
p3868
I57
sS'81482.txt'
p3869
I181
sS'81646.txt'
p3870
I121
sS'79968.txt'
p3871
I159
sS'76090.txt'
p3872
I51
sS'77938.txt'
p3873
I90
sS'76298.txt'
p3874
I97
sS'76502.txt'
p3875
I189
sS'77513.txt'
p3876
I72
sS'81225.txt'
p3877
I2390
sS'81223.txt'
p3878
I244
sS'78129.txt'
p3879
I89
sS'80538.txt'
p3880
I65
sS'79850.txt'
p3881
I128
sS'77637.txt'
p3882
I68
sS'78582.txt'
p3883
I139
sS'77863.txt'
p3884
I98
sS'80614.txt'
p3885
I364
sS'79215.txt'
p3886
I80
sS'78090.txt'
p3887
I49
sS'76899.txt'
p3888
I183
sS'79689.txt'
p3889
I177
sS'75787.txt'
p3890
I170
sS'78201.txt'
p3891
I207
sS'80941.txt'
p3892
I193
sS'79141.txt'
p3893
I244
sS'80092.txt'
p3894
I91
sS'81040.txt'
p3895
I75
sS'77236.txt'
p3896
I99
sS'81423.txt'
p3897
I143
sS'80010.txt'
p3898
I98
sS'80100.txt'
p3899
I99
sS'78460.txt'
p3900
I73
sS'81123.txt'
p3901
I49
sS'76360.txt'
p3902
I63
sS'76232.txt'
p3903
I60
sS'81094.txt'
p3904
I80
sS'78105.txt'
p3905
I293
sS'81568.txt'
p3906
I2277
sS'78347.txt'
p3907
I67
sS'78718.txt'
p3908
I90
sS'80455.txt'
p3909
I182
sS'80244.txt'
p3910
I66
sS'78598.txt'
p3911
I338
sS'79261.txt'
p3912
I165
sS'77599.txt'
p3913
I166
sS'81515.txt'
p3914
I83
sS'79122.txt'
p3915
I68
sS'79299.txt'
p3916
I78
sS'80937.txt'
p3917
I251
sS'79583.txt'
p3918
I43
sS'79060.txt'
p3919
I211
sS'78337.txt'
p3920
I338
sS'75863.txt'
p3921
I55
sS'76813.txt'
p3922
I78
sS'77491.txt'
p3923
I94
sS'77755.txt'
p3924
I112
sS'81115.txt'
p3925
I108
sS'75946.txt'
p3926
I57
sS'78616.txt'
p3927
I233
sS'77017.txt'
p3928
I95
sS'80325.txt'
p3929
I83
sS'75811.txt'
p3930
I72
sS'81265.txt'
p3931
I53
sS'77455.txt'
p3932
I96
sS'79656.txt'
p3933
I54
sS'77552.txt'
p3934
I168
sS'75851.txt'
p3935
I150
sS'81217.txt'
p3936
I93
sS'77474.txt'
p3937
I55
sS'78345.txt'
p3938
I48
sS'77614.txt'
p3939
I150
sS'80805.txt'
p3940
I117
sS'77241.txt'
p3941
I433
sS'75757.txt'
p3942
I135
sS'79787.txt'
p3943
I75
sS'80760.txt'
p3944
I255
sS'77360.txt'
p3945
I83
sS'78536.txt'
p3946
I135
sS'77400.txt'
p3947
I46
sS'80598.txt'
p3948
I252
sS'79168.txt'
p3949
I199
sS'77911.txt'
p3950
I77
sS'77422.txt'
p3951
I49
sS'80791.txt'
p3952
I81
sS'77258.txt'
p3953
I253
sS'79066.txt'
p3954
I200
sS'75884.txt'
p3955
I64
sS'76372.txt'
p3956
I104
sS'80136.txt'
p3957
I62
sS'80130.txt'
p3958
I307
sS'80655.txt'
p3959
I116
sS'81399.txt'
p3960
I144
sS'81570.txt'
p3961
I75
sS'80639.txt'
p3962
I103
sS'79116.txt'
p3963
I92
sS'76273.txt'
p3964
I123
sS'78574.txt'
p3965
I165
sS'77507.txt'
p3966
I95
sS'80353.txt'
p3967
I67
sS'79866.txt'
p3968
I105
sS'77180.txt'
p3969
I85
sS'78228.txt'
p3970
I80
sS'80502.txt'
p3971
I94
sS'80797.txt'
p3972
I75
sS'79777.txt'
p3973
I149
sS'81403.txt'
p3974
I215
sS'77051.txt'
p3975
I265
sS'79546.txt'
p3976
I85
sS'79226.txt'
p3977
I92
sS'76526.txt'
p3978
I76
sS'81590.txt'
p3979
I66
sS'81636.txt'
p3980
I295
sS'77273.txt'
p3981
I67
sS'76592.txt'
p3982
I63
sS'78912.txt'
p3983
I81
sS'80931.txt'
p3984
I76
sS'76519.txt'
p3985
I180
sS'76794.txt'
p3986
I273
sS'78317.txt'
p3987
I49
sS'77826.txt'
p3988
I67
sS'79020.txt'
p3989
I55
sS'76424.txt'
p3990
I181
sS'81055.txt'
p3991
I278
sS'78178.txt'
p3992
I129
sS'78492.txt'
p3993
I83
sS'77726.txt'
p3994
I157
sS'77959.txt'
p3995
I93
sS'80750.txt'
p3996
I134
sS'81342.txt'
p3997
I244
sS'81497.txt'
p3998
I50
sS'79523.txt'
p3999
I59
sS'77638.txt'
p4000
I324
sS'79552.txt'
p4001
I97
sS'80176.txt'
p4002
I188
sS'80908.txt'
p4003
I74
sS'80228.txt'
p4004
I77
sS'78397.txt'
p4005
I81
sS'81537.txt'
p4006
I96
sS'76345.txt'
p4007
I55
sS'80874.txt'
p4008
I158
sS'76433.txt'
p4009
I78
sS'80122.txt'
p4010
I115
sS'79069.txt'
p4011
I91
sS'77534.txt'
p4012
I218
sS'76079.txt'
p4013
I95
sS'75903.txt'
p4014
I138
sS'81289.txt'
p4015
I139
sS'80844.txt'
p4016
I41
sS'80729.txt'
p4017
I90
sS'75751.txt'
p4018
I96
sS'79625.txt'
p4019
I51
sS'78910.txt'
p4020
I69
sS'80098.txt'
p4021
I97
sS'76333.txt'
p4022
I575
sS'81017.txt'
p4023
I100
sS'80239.txt'
p4024
I65
sS'76243.txt'
p4025
I56
sS'80053.txt'
p4026
I93
sS'78633.txt'
p4027
I85
sS'75768.txt'
p4028
I96
sS'76863.txt'
p4029
I168
sS'78660.txt'
p4030
I152
sS'81047.txt'
p4031
I50
sS'76560.txt'
p4032
I23
sS'77313.txt'
p4033
I131
sS'80743.txt'
p4034
I127
sS'76152.txt'
p4035
I597
sS'76300.txt'
p4036
I81
sS'77587.txt'
p4037
I146
sS'78871.txt'
p4038
I56
sS'76186.txt'
p4039
I67
sS'80663.txt'
p4040
I85
sS'79842.txt'
p4041
I145
sS'78285.txt'
p4042
I90
sS'81110.txt'
p4043
I107
sS'77018.txt'
p4044
I97
sS'77918.txt'
p4045
I211
sS'79667.txt'
p4046
I106
sS'78896.txt'
p4047
I75
sS'80349.txt'
p4048
I129
sS'79038.txt'
p4049
I62
sS'80949.txt'
p4050
I244
sS'78922.txt'
p4051
I349
sS'77466.txt'
p4052
I64
sS'79006.txt'
p4053
I84
sS'80280.txt'
p4054
I247
sS'80710.txt'
p4055
I141
sS'77921.txt'
p4056
I87
sS'79198.txt'
p4057
I41
sS'77162.txt'
p4058
I67
sS'77092.txt'
p4059
I112
sS'80913.txt'
p4060
I270
sS'81326.txt'
p4061
I55
sS'75915.txt'
p4062
I56
sS'79606.txt'
p4063
I73
sS'79102.txt'
p4064
I40
sS'77588.txt'
p4065
I49
sS'80978.txt'
p4066
I67
sS'79004.txt'
p4067
I77
sS'80320.txt'
p4068
I169
sS'79599.txt'
p4069
I131
sS'77415.txt'
p4070
I240
sS'79548.txt'
p4071
I66
sS'80407.txt'
p4072
I174
sS'77781.txt'
p4073
I110
sS'80513.txt'
p4074
I57
sS'80994.txt'
p4075
I56
sS'81586.txt'
p4076
I104
sS'78486.txt'
p4077
I85
sS'79290.txt'
p4078
I83
sS'79084.txt'
p4079
I66
sS'79448.txt'
p4080
I301
sS'78798.txt'
p4081
I381
sS'77697.txt'
p4082
I94
sS'78404.txt'
p4083
I201
sS'80330.txt'
p4084
I86
sS'76461.txt'
p4085
I90
sS'81158.txt'
p4086
I38
sS'80196.txt'
p4087
I120
sS'79419.txt'
p4088
I231
sS'79916.txt'
p4089
I74
sS'80814.txt'
p4090
I142
sS'80047.txt'
p4091
I189
sS'79985.txt'
p4092
I411
sS'77483.txt'
p4093
I209
sS'76275.txt'
p4094
I80
sS'75809.txt'
p4095
I159
sS'80986.txt'
p4096
I82
sS'78372.txt'
p4097
I226
sS'77082.txt'
p4098
I298
sS'81506.txt'
p4099
I304
sS'76601.txt'
p4100
I87
sS'77949.txt'
p4101
I375
sS'79341.txt'
p4102
I75
sS'78267.txt'
p4103
I103
sS'80927.txt'
p4104
I66
sS'81368.txt'
p4105
I97
sS'77770.txt'
p4106
I157
sS'76226.txt'
p4107
I51
sS'77123.txt'
p4108
I210
sS'81626.txt'
p4109
I78
sS'78656.txt'
p4110
I88
sS'79613.txt'
p4111
I87
sS'76806.txt'
p4112
I95
sS'78406.txt'
p4113
I89
sS'81459.txt'
p4114
I84
sS'77502.txt'
p4115
I194
sS'79192.txt'
p4116
I86
sS'80665.txt'
p4117
I75
sS'79103.txt'
p4118
I90
sS'77265.txt'
p4119
I392
sS'79556.txt'
p4120
I55
sS'78510.txt'
p4121
I261
sS'76900.txt'
p4122
I60
sS'77619.txt'
p4123
I98
sS'77982.txt'
p4124
I95
sS'81487.txt'
p4125
I470
sS'77872.txt'
p4126
I76
sS'77761.txt'
p4127
I147
sS'76039.txt'
p4128
I244
sS'79589.txt'
p4129
I72
sS'75747.txt'
p4130
I207
sS'78669.txt'
p4131
I67
sS'76017.txt'
p4132
I75
sS'78019.txt'
p4133
I171
sS'80015.txt'
p4134
I328
sS'80541.txt'
p4135
I96
sS'77908.txt'
p4136
I202
sS'76633.txt'
p4137
I244
sS'80022.txt'
p4138
I228
sS'81199.txt'
p4139
I80
sS'76746.txt'
p4140
I194
sS'78611.txt'
p4141
I123
sS'76012.txt'
p4142
I67
sS'77110.txt'
p4143
I154
sS'78251.txt'
p4144
I72
sS'79358.txt'
p4145
I174
sS'78325.txt'
p4146
I104
sS'76810.txt'
p4147
I107
sS'81584.txt'
p4148
I160
sS'81074.txt'
p4149
I186
sS'79690.txt'
p4150
I225
sS'77068.txt'
p4151
I122
sS'79795.txt'
p4152
I177
sS'76763.txt'
p4153
I55
sS'77222.txt'
p4154
I43
sS'80486.txt'
p4155
I278
sS'75943.txt'
p4156
I95
sS'79717.txt'
p4157
I114
sS'75945.txt'
p4158
I240
sS'78941.txt'
p4159
I104
sS'77556.txt'
p4160
I339
sS'76504.txt'
p4161
I51
sS'80442.txt'
p4162
I419
sS'81630.txt'
p4163
I103
sS'81154.txt'
p4164
I84
sS'76404.txt'
p4165
I64
sS'79534.txt'
p4166
I105
sS'77281.txt'
p4167
I241
sS'80812.txt'
p4168
I98
sS'79767.txt'
p4169
I59
sS'78571.txt'
p4170
I244
sS'77623.txt'
p4171
I56
sS'78796.txt'
p4172
I107
sS'80145.txt'
p4173
I170
sS'77912.txt'
p4174
I88
sS'81119.txt'
p4175
I174
sS'79426.txt'
p4176
I88
sS'79174.txt'
p4177
I61
sS'78691.txt'
p4178
I170
sS'77363.txt'
p4179
I76
sS'80055.txt'
p4180
I160
sS'80928.txt'
p4181
I111
sS'81530.txt'
p4182
I74
sS'80535.txt'
p4183
I77
sS'77719.txt'
p4184
I78
sS'77105.txt'
p4185
I336
sS'79715.txt'
p4186
I244
sS'76800.txt'
p4187
I180
sS'75846.txt'
p4188
I70
sS'80236.txt'
p4189
I90
sS'76672.txt'
p4190
I211
sS'78883.txt'
p4191
I539
sS'79566.txt'
p4192
I235
sS'79607.txt'
p4193
I146
sS'80246.txt'
p4194
I228
sS'80626.txt'
p4195
I55
sS'78802.txt'
p4196
I99
sS'80742.txt'
p4197
I157
sS'78710.txt'
p4198
I27
sS'76501.txt'
p4199
I83
sS'79823.txt'
p4200
I204
sS'75748.txt'
p4201
I246
sS'77234.txt'
p4202
I106
sS'80577.txt'
p4203
I146
sS'76852.txt'
p4204
I97
sS'81120.txt'
p4205
I51
sS'78814.txt'
p4206
I75
sS'78348.txt'
p4207
I84
sS'76458.txt'
p4208
I258
sS'80009.txt'
p4209
I82
sS'81566.txt'
p4210
I139
sS'79524.txt'
p4211
I145
sS'81112.txt'
p4212
I81
sS'76657.txt'
p4213
I97
sS'75803.txt'
p4214
I91
sS'76488.txt'
p4215
I407
sS'81309.txt'
p4216
I469
sS'80884.txt'
p4217
I195
sS'79018.txt'
p4218
I92
sS'77725.txt'
p4219
I102
sS'77179.txt'
p4220
I265
sS'80673.txt'
p4221
I80
sS'77795.txt'
p4222
I89
sS'77276.txt'
p4223
I54
sS'79737.txt'
p4224
I239
sS'75973.txt'
p4225
I165
sS'81085.txt'
p4226
I127
sS'76752.txt'
p4227
I150
sS'80492.txt'
p4228
I99
sS'78680.txt'
p4229
I81
sS'81604.txt'
p4230
I238
sS'76191.txt'
p4231
I56
sS'80799.txt'
p4232
I108
sS'79747.txt'
p4233
I207
sS'80184.txt'
p4234
I83
sS'81184.txt'
p4235
I199
sS'78262.txt'
p4236
I94
sS'81277.txt'
p4237
I75
sS'79662.txt'
p4238
I178
sS'80034.txt'
p4239
I93
sS'77006.txt'
p4240
I53
sS'79485.txt'
p4241
I108
sS'79848.txt'
p4242
I68
sS'80344.txt'
p4243
I59
sS'80434.txt'
p4244
I155
sS'81244.txt'
p4245
I185
sS'78543.txt'
p4246
I538
sS'76126.txt'
p4247
I55
sS'79356.txt'
p4248
I64
sS'78013.txt'
p4249
I41
sS'81455.txt'
p4250
I100
sS'76564.txt'
p4251
I22
sS'80730.txt'
p4252
I310
sS'79871.txt'
p4253
I88
sS'79126.txt'
p4254
I70
sS'76629.txt'
p4255
I104
sS'81034.txt'
p4256
I55
sS'77947.txt'
p4257
I46
sS'78957.txt'
p4258
I150
sS'79831.txt'
p4259
I173
sS'81348.txt'
p4260
I90
sS'79223.txt'
p4261
I100
sS'78457.txt'
p4262
I106
sS'78362.txt'
p4263
I49
sS'79931.txt'
p4264
I258
sS'79602.txt'
p4265
I104
sS'75886.txt'
p4266
I157
sS'80822.txt'
p4267
I274
sS'78804.txt'
p4268
I175
sS'77653.txt'
p4269
I100
sS'79450.txt'
p4270
I169
sS'80088.txt'
p4271
I94
sS'77182.txt'
p4272
I55
sS'79809.txt'
p4273
I451
sS'76986.txt'
p4274
I285
sS'76943.txt'
p4275
I216
sS'78011.txt'
p4276
I108
sS'80255.txt'
p4277
I95
sS'81062.txt'
p4278
I83
sS'76626.txt'
p4279
I58
sS'77404.txt'
p4280
I76
sS'77115.txt'
p4281
I244
sS'76074.txt'
p4282
I584
sS'77549.txt'
p4283
I66
sS'79154.txt'
p4284
I83
sS'77786.txt'
p4285
I173
sS'78103.txt'
p4286
I396
sS'78999.txt'
p4287
I62
sS'81181.txt'
p4288
I142
sS'79158.txt'
p4289
I55
sS'80562.txt'
p4290
I147
sS'78146.txt'
p4291
I43
sS'81401.txt'
p4292
I273
sS'76426.txt'
p4293
I257
sS'77460.txt'
p4294
I86
sS'80402.txt'
p4295
I160
sS'78654.txt'
p4296
I100
sS'78580.txt'
p4297
I85
sS'80404.txt'
p4298
I42
sS'80396.txt'
p4299
I77
sS'77845.txt'
p4300
I92
sS'80903.txt'
p4301
I201
sS'76754.txt'
p4302
I182
sS'76878.txt'
p4303
I242
sS'81234.txt'
p4304
I98
sS'78531.txt'
p4305
I64
sS'76481.txt'
p4306
I71
sS'76687.txt'
p4307
I76
sS'75859.txt'
p4308
I63
sS'77073.txt'
p4309
I92
sS'79217.txt'
p4310
I144
sS'79171.txt'
p4311
I126
sS'80611.txt'
p4312
I287
sS'75966.txt'
p4313
I155
sS'78462.txt'
p4314
I101
sS'78889.txt'
p4315
I44
sS'76663.txt'
p4316
I176
sS'81319.txt'
p4317
I499
sS'76891.txt'
p4318
I383
sS'76362.txt'
p4319
I85
sS'79283.txt'
p4320
I100
sS'78652.txt'
p4321
I244
sS'81468.txt'
p4322
I65
sS'79676.txt'
p4323
I148
sS'77393.txt'
p4324
I478
sS'78401.txt'
p4325
I75
sS'77565.txt'
p4326
I356
sS'76464.txt'
p4327
I55
sS'81015.txt'
p4328
I118
sS'79366.txt'
p4329
I67
sS'79183.txt'
p4330
I60
sS'77127.txt'
p4331
I65
sS'75763.txt'
p4332
I94
sS'80108.txt'
p4333
I210
sS'80301.txt'
p4334
I129
sS'76877.txt'
p4335
I96
sS'76648.txt'
p4336
I180
sS'78614.txt'
p4337
I87
sS'79722.txt'
p4338
I278
sS'76211.txt'
p4339
I288
sS'76724.txt'
p4340
I90
sS'77266.txt'
p4341
I169
sS'76338.txt'
p4342
I84
sS'78548.txt'
p4343
I181
sS'80066.txt'
p4344
I186
sS'76607.txt'
p4345
I105
sS'79166.txt'
p4346
I113
sS'79162.txt'
p4347
I83
sS'80416.txt'
p4348
I150
sS'77636.txt'
p4349
I88
sS'79364.txt'
p4350
I97
sS'76945.txt'
p4351
I66
sS'80375.txt'
p4352
I67
sS'75785.txt'
p4353
I62
sS'80629.txt'
p4354
I185
sS'77931.txt'
p4355
I97
sS'81139.txt'
p4356
I85
sS'80632.txt'
p4357
I75
sS'79540.txt'
p4358
I178
sS'76179.txt'
p4359
I191
sS'80800.txt'
p4360
I104
sS'80073.txt'
p4361
I289
sS'79585.txt'
p4362
I61
sS'80739.txt'
p4363
I188
sS'80712.txt'
p4364
I244
sS'80147.txt'
p4365
I123
sS'76227.txt'
p4366
I92
sS'77366.txt'
p4367
I165
sS'79459.txt'
p4368
I120
sS'79269.txt'
p4369
I152
sS'80454.txt'
p4370
I96
sS'76975.txt'
p4371
I128
sS'77843.txt'
p4372
I70
sS'81263.txt'
p4373
I81
sS'78977.txt'
p4374
I437
sS'77381.txt'
p4375
I89
sS'79622.txt'
p4376
I55
sS'77994.txt'
p4377
I361
sS'77275.txt'
p4378
I83
sS'79421.txt'
p4379
I219
sS'81027.txt'
p4380
I90
sS'80646.txt'
p4381
I179
sS'79061.txt'
p4382
I173
sS'79325.txt'
p4383
I242
sS'79775.txt'
p4384
I78
sS'77620.txt'
p4385
I227
sS'80554.txt'
p4386
I313
sS'77016.txt'
p4387
I53
sS'79712.txt'
p4388
I130
sS'80864.txt'
p4389
I244
sS'77553.txt'
p4390
I223
sS'80984.txt'
p4391
I114
sS'76816.txt'
p4392
I387
sS'81522.txt'
p4393
I148
sS'77188.txt'
p4394
I51
sS'79991.txt'
p4395
I80
sS'80121.txt'
p4396
I133
sS'75850.txt'
p4397
I125
sS'80269.txt'
p4398
I86
sS'76714.txt'
p4399
I218
sS'79785.txt'
p4400
I98
sS'77702.txt'
p4401
I89
sS'78198.txt'
p4402
I88
sS'81347.txt'
p4403
I94
sS'78635.txt'
p4404
I75
sS'79887.txt'
p4405
I198
sS'81116.txt'
p4406
I147
sS'76597.txt'
p4407
I77
sS'78793.txt'
p4408
I244
sS'78367.txt'
p4409
I231
sS'75905.txt'
p4410
I90
sS'79521.txt'
p4411
I235
sS'80427.txt'
p4412
I76
sS'80149.txt'
p4413
I194
sS'75958.txt'
p4414
I52
sS'80399.txt'
p4415
I90
sS'78395.txt'
p4416
I78
sS'80925.txt'
p4417
I64
sS'76097.txt'
p4418
I100
sS'76613.txt'
p4419
I111
sS'76517.txt'
p4420
I243
sS'77914.txt'
p4421
I217
sS'77410.txt'
p4422
I76
sS'79782.txt'
p4423
I79
sS'81544.txt'
p4424
I56
sS'78170.txt'
p4425
I199
sS'80543.txt'
p4426
I321
sS'80915.txt'
p4427
I55
sS'80657.txt'
p4428
I58
sS'77630.txt'
p4429
I258
sS'77802.txt'
p4430
I88
sS'81281.txt'
p4431
I101
sS'76384.txt'
p4432
I128
sS'77094.txt'
p4433
I201
sS'79885.txt'
p4434
I75
sS'80835.txt'
p4435
I214
sS'75913.txt'
p4436
I65
sS'78026.txt'
p4437
I76
sS'81189.txt'
p4438
I200
sS'79812.txt'
p4439
I207
sS'75745.txt'
p4440
I124
sS'78949.txt'
p4441
I240
sS'78918.txt'
p4442
I59
sS'78494.txt'
p4443
I83
sS'81643.txt'
p4444
I148
sS'77662.txt'
p4445
I284
sS'78121.txt'
p4446
I80
sS'78172.txt'
p4447
I126
sS'81170.txt'
p4448
I97
sS'80170.txt'
p4449
I132
sS'81532.txt'
p4450
I440
sS'77035.txt'
p4451
I209
sS'77076.txt'
p4452
I66
sS'76157.txt'
p4453
I305
sS'76396.txt'
p4454
I67
sS'77484.txt'
p4455
I87
sS'80338.txt'
p4456
I85
sS'77827.txt'
p4457
I76
sS'79925.txt'
p4458
I115
sS'76708.txt'
p4459
I329
sS'80467.txt'
p4460
I84
sS'81563.txt'
p4461
I55
sS'80037.txt'
p4462
I75
sS'81201.txt'
p4463
I451
sS'80692.txt'
p4464
I62
sS'77798.txt'
p4465
I55
sS'80591.txt'
p4466
I59
sS'77723.txt'
p4467
I94
sS'80341.txt'
p4468
I59
sS'80347.txt'
p4469
I184
sS'78214.txt'
p4470
I385
sS'80846.txt'
p4471
I91
sS'81317.txt'
p4472
I68
sS'80755.txt'
p4473
I102
sS'78049.txt'
p4474
I146
sS'76467.txt'
p4475
I66
sS'77141.txt'
p4476
I254
sS'76394.txt'
p4477
I89
sS'79480.txt'
p4478
I82
sS'76053.txt'
p4479
I92
sS'77783.txt'
p4480
I83
sS'76307.txt'
p4481
I219
sS'76316.txt'
p4482
I127
sS'77425.txt'
p4483
I86
sS'79844.txt'
p4484
I307
sS'81592.txt'
p4485
I244
sS'79292.txt'
p4486
I665
sS'79086.txt'
p4487
I228
sS'76206.txt'
p4488
I353
sS'78016.txt'
p4489
I101
sS'76561.txt'
p4490
I158
sS'79087.txt'
p4491
I54
sS'77520.txt'
p4492
I47
sS'79263.txt'
p4493
I72
sS'79623.txt'
p4494
I240
sS'76061.txt'
p4495
I66
sS'80286.txt'
p4496
I176
sS'79828.txt'
p4497
I39
sS'77472.txt'
p4498
I415
sS'77859.txt'
p4499
I139
sS'78287.txt'
p4500
I90
sS'79987.txt'
p4501
I181
sS'77510.txt'
p4502
I466
sS'76954.txt'
p4503
I261
sS'76187.txt'
p4504
I75
sS'77347.txt'
p4505
I177
sS'76985.txt'
p4506
I468
sS'79331.txt'
p4507
I81
sS'77467.txt'
p4508
I92
sS'81642.txt'
p4509
I83
sS'76171.txt'
p4510
I84
sS'80389.txt'
p4511
I229
sS'78607.txt'
p4512
I87
sS'75801.txt'
p4513
I139
sS'78558.txt'
p4514
I102
sS'76051.txt'
p4515
I60
sS'78374.txt'
p4516
I132
sS'81109.txt'
p4517
I164
sS'76286.txt'
p4518
I241
sS'80263.txt'
p4519
I183
sS'78233.txt'
p4520
I228
sS'77856.txt'
p4521
I431
sS'80643.txt'
p4522
I259
sS'77337.txt'
p4523
I68
sS'81257.txt'
p4524
I95
sS'77980.txt'
p4525
I227
sS'81485.txt'
p4526
I825
sS'80726.txt'
p4527
I142
sS'79949.txt'
p4528
I244
sS'80378.txt'
p4529
I178
sS'78947.txt'
p4530
I67
sS'76265.txt'
p4531
I126
sS'80671.txt'
p4532
I98
sS'77263.txt'
p4533
I65
sS'80331.txt'
p4534
I104
sS'79129.txt'
p4535
I49
sS'77284.txt'
p4536
I91
sS'77648.txt'
p4537
I101
sS'80004.txt'
p4538
I432
sS'76252.txt'
p4539
I111
sS'79608.txt'
p4540
I84
sS'78708.txt'
p4541
I303
sS'77550.txt'
p4542
I612
sS'81520.txt'
p4543
I318
sS'77335.txt'
p4544
I154
sS'80581.txt'
p4545
I83
sS'80444.txt'
p4546
I92
sS'79692.txt'
p4547
I240
sS'77953.txt'
p4548
I104
sS'76600.txt'
p4549
I101
sS'77220.txt'
p4550
I180
sS'80618.txt'
p4551
I378
sS'77047.txt'
p4552
I76
sS'81076.txt'
p4553
I431
sS'79363.txt'
p4554
I133
sS'77122.txt'
p4555
I65
sS'76939.txt'
p4556
I66
sS'78604.txt'
p4557
I150
sS'80698.txt'
p4558
I68
sS'78659.txt'
p4559
I94
sS'80222.txt'
p4560
I201
sS'76353.txt'
p4561
I80
sS'78856.txt'
p4562
I247
sS'75956.txt'
p4563
I78
sS'77647.txt'
p4564
I151
sS'80830.txt'
p4565
I240
sS'78716.txt'
p4566
I75
sS'76181.txt'
p4567
I75
sS'78855.txt'
p4568
I209
sS'80977.txt'
p4569
I75
sS'78528.txt'
p4570
I285
sS'77231.txt'
p4571
I138
sS'77838.txt'
p4572
I101
sS'81650.txt'
p4573
I82
sS'75840.txt'
p4574
I200
sS'79424.txt'
p4575
I44
sS'80360.txt'
p4576
I99
sS'77154.txt'
p4577
I228
sS'76645.txt'
p4578
I114
sS'77361.txt'
p4579
I206
sS'76775.txt'
p4580
I141
sS'80820.txt'
p4581
I74
sS'78749.txt'
p4582
I81
sS'78043.txt'
p4583
I67
sS'79518.txt'
p4584
I81
sS'76315.txt'
p4585
I172
sS'78668.txt'
p4586
I254
sS'77877.txt'
p4587
I163
sS'76552.txt'
p4588
I76
sS'78438.txt'
p4589
I105
sS'81582.txt'
p4590
I90
sS'76531.txt'
p4591
I49
sS'80234.txt'
p4592
I72
sS'76869.txt'
p4593
I75
sS'79062.txt'
p4594
I60
sS'79146.txt'
p4595
I126
sS'80017.txt'
p4596
I350
sS'76779.txt'
p4597
I93
sS'80796.txt'
p4598
I664
sS'79919.txt'
p4599
I200
sS'78688.txt'
p4600
I130
sS'76811.txt'
p4601
I250
sS'78739.txt'
p4602
I135
sS'79821.txt'
p4603
I51
sS'76297.txt'
p4604
I171
sS'80809.txt'
p4605
I307
sS'76965.txt'
p4606
I398
sS'76058.txt'
p4607
I37
sS'78577.txt'
p4608
I308
sS'76850.txt'
p4609
I184
sS'76037.txt'
p4610
I97
sS'76697.txt'
p4611
I65
sS'80860.txt'
p4612
I104
sS'78774.txt'
p4613
I94
sS'77398.txt'
p4614
I107
sS'81215.txt'
p4615
I97
sS'80501.txt'
p4616
I76
sS'77432.txt'
p4617
I76
sS'79369.txt'
p4618
I370
sS'76785.txt'
p4619
I75
sS'76117.txt'
p4620
I94
sS'81655.txt'
p4621
I98
sS'78276.txt'
p4622
I283
sS'79960.txt'
p4623
I190
sS'80328.txt'
p4624
I260
sS'80424.txt'
p4625
I223
sS'77913.txt'
p4626
I157
sS'80012.txt'
p4627
I83
sS'77626.txt'
p4628
I87
sS'76278.txt'
p4629
I55
sS'78682.txt'
p4630
I89
sS'78333.txt'
p4631
I101
sS'79574.txt'
p4632
I84
sS'75888.txt'
p4633
I75
sS'76695.txt'
p4634
I352
sS'76587.txt'
p4635
I154
sS'79405.txt'
p4636
I177
sS'80186.txt'
p4637
I83
sS'76562.txt'
p4638
I623
sS'77004.txt'
p4639
I290
sS'76787.txt'
p4640
I563
sS'80565.txt'
p4641
I262
sS'76174.txt'
p4642
I285
sS'81032.txt'
p4643
I101
sS'80497.txt'
p4644
I104
sS'76705.txt'
p4645
I257
sS'77766.txt'
p4646
I67
sS'76615.txt'
p4647
I40
sS'76436.txt'
p4648
I46
sS'77692.txt'
p4649
I92
sS'79350.txt'
p4650
I78
sS'77519.txt'
p4651
I129
sS'78175.txt'
p4652
I87
sS'77133.txt'
p4653
I92
sS'79873.txt'
p4654
I180
sS'81557.txt'
p4655
I190
sS'78735.txt'
p4656
I243
sS'78429.txt'
p4657
I54
sS'77161.txt'
p4658
I233
sS'81135.txt'
p4659
I651
sS'80369.txt'
p4660
I50
sS'77202.txt'
p4661
I86
sS'81535.txt'
p4662
I81
sS'79197.txt'
p4663
I45
sS'75961.txt'
p4664
I116
sS'76136.txt'
p4665
I199
sS'79256.txt'
p4666
I360
sS'79933.txt'
p4667
I129
sS'77724.txt'
p4668
I112
sS'79348.txt'
p4669
I43
sS'79303.txt'
p4670
I73
sS'78309.txt'
p4671
I182
sS'77434.txt'
p4672
I83
sS'80153.txt'
p4673
I50
sS'76197.txt'
p4674
I202
sS'79999.txt'
p4675
I48
sS'78742.txt'
p4676
I81
sS'79664.txt'
p4677
I84
sS'77306.txt'
p4678
I84
sS'78451.txt'
p4679
I314
sS'81538.txt'
p4680
I170
sS'79463.txt'
p4681
I189
sS'81084.txt'
p4682
I494
sS'80120.txt'
p4683
I143
sS'78310.txt'
p4684
I100
sS'76840.txt'
p4685
I131
sS'80207.txt'
p4686
I165
sS'80584.txt'
p4687
I57
sS'77187.txt'
p4688
I49
sS'77214.txt'
p4689
I231
sS'75923.txt'
p4690
I171
sS'80560.txt'
p4691
I93
sS'78387.txt'
p4692
I98
sS'75908.txt'
p4693
I429
sS'77558.txt'
p4694
I83
sS'79238.txt'
p4695
I47
sS'79382.txt'
p4696
I185
sS'76822.txt'
p4697
I139
sS'76299.txt'
p4698
I55
sS'77462.txt'
p4699
I419
sS'80031.txt'
p4700
I42
sS'76313.txt'
p4701
I122
sS'76643.txt'
p4702
I194
sS'76281.txt'
p4703
I95
sS'79024.txt'
p4704
I63
sS'80475.txt'
p4705
I51
sS'76685.txt'
p4706
I56
sS'79239.txt'
p4707
I64
sS'77121.txt'
p4708
I203
sS'80613.txt'
p4709
I98
sS'75964.txt'
p4710
I71
sS'77216.txt'
p4711
I88
sS'80307.txt'
p4712
I186
sS'78520.txt'
p4713
I482
sS'79281.txt'
p4714
I316
sS'77830.txt'
p4715
I150
sS'80621.txt'
p4716
I93
sS'76176.txt'
p4717
I75
sS'77391.txt'
p4718
I46
sS'78828.txt'
p4719
I238
sS'77960.txt'
p4720
I244
sS'75848.txt'
p4721
I199
sS'77567.txt'
p4722
I206
sS'81363.txt'
p4723
I82
sS'79266.txt'
p4724
I67
sS'78485.txt'
p4725
I186
sS'81178.txt'
p4726
I156
sS'78741.txt'
p4727
I50
sS'78166.txt'
p4728
I79
sS'78821.txt'
p4729
I176
sS'80161.txt'
p4730
I74
sS'76076.txt'
p4731
I103
sS'78935.txt'
p4732
I66
sS'75871.txt'
p4733
I51
sS'76573.txt'
p4734
I183
sS'77157.txt'
p4735
I76
sS'80226.txt'
p4736
I96
sS'81010.txt'
p4737
I79
sS'81383.txt'
p4738
I95
sS'78936.txt'
p4739
I86
sS'80854.txt'
p4740
I203
sS'81548.txt'
p4741
I202
sS'75783.txt'
p4742
I158
sS'78222.txt'
p4743
I329
sS'77264.txt'
p4744
I251
sS'80725.txt'
p4745
I91
sS'80753.txt'
p4746
I163
sS'76605.txt'
p4747
I97
sS'78106.txt'
p4748
I267
sS'79437.txt'
p4749
I104
sS'76198.txt'
p4750
I189
sS'77142.txt'
p4751
I461
sS'76237.txt'
p4752
I97
sS'78009.txt'
p4753
I191
sS'76677.txt'
p4754
I103
sS'79724.txt'
p4755
I94
sS'80159.txt'
p4756
I151
sS'76928.txt'
p4757
I285
sS'77790.txt'
p4758
I99
sS'80397.txt'
p4759
I91
sS'81082.txt'
p4760
I198
sS'76716.txt'
p4761
I203
sS'77025.txt'
p4762
I266
sS'79384.txt'
p4763
I136
sS'79065.txt'
p4764
I76
sS'79760.txt'
p4765
I49
sS'78808.txt'
p4766
I103
sS'76450.txt'
p4767
I424
sS'80802.txt'
p4768
I529
sS'81381.txt'
p4769
I134
sS'75858.txt'
p4770
I76
sS'79997.txt'
p4771
I59
sS'76033.txt'
p4772
I81
sS'78071.txt'
p4773
I94
sS'77405.txt'
p4774
I147
sS'81303.txt'
p4775
I69
sS'78888.txt'
p4776
I45
sS'77731.txt'
p4777
I88
sS'80893.txt'
p4778
I522
sS'78612.txt'
p4779
I253
sS'76977.txt'
p4780
I82
sS'77956.txt'
p4781
I59
sS'76849.txt'
p4782
I246
sS'77950.txt'
p4783
I50
sS'79182.txt'
p4784
I228
sS'77793.txt'
p4785
I275
sS'81624.txt'
p4786
I61
sS'77996.txt'
p4787
I424
sS'81503.txt'
p4788
I67
sS'76118.txt'
p4789
I52
sS'76479.txt'
p4790
I180
sS'79563.txt'
p4791
I111
sS'78355.txt'
p4792
I58
sS'79205.txt'
p4793
I190
sS'79865.txt'
p4794
I164
sS'79655.txt'
p4795
I493
sS'80363.txt'
p4796
I371
sS'77870.txt'
p4797
I55
sS'78167.txt'
p4798
I384
sS'81603.txt'
p4799
I55
sS'80974.txt'
p4800
I101
sS'78149.txt'
p4801
I96
sS'76814.txt'
p4802
I231
sS'75881.txt'
p4803
I86
sS'78549.txt'
p4804
I55
sS'79796.txt'
p4805
I86
sS'79434.txt'
p4806
I160
sS'79469.txt'
p4807
I103
sS'76907.txt'
p4808
I139
sS'81043.txt'
p4809
I150
sS'80981.txt'
p4810
I271
sS'77151.txt'
p4811
I67
sS'78791.txt'
p4812
I121
sS'79578.txt'
p4813
I106
sS'77699.txt'
p4814
I53
sS'76448.txt'
p4815
I206
sS'80460.txt'
p4816
I92
sS'79306.txt'
p4817
I199
sS'76664.txt'
p4818
I66
sS'81176.txt'
p4819
I80
sS'79401.txt'
p4820
I199
sS'81276.txt'
p4821
I229
sS'76095.txt'
p4822
I154
sS'76776.txt'
p4823
I331
sS'76515.txt'
p4824
I109
sS'77916.txt'
p4825
I60
sS'79545.txt'
p4826
I74
sS'77168.txt'
p4827
I257
sS'78099.txt'
p4828
I244
sS'79458.txt'
p4829
I193
sS'77054.txt'
p4830
I132
sS'77942.txt'
p4831
I93
sS'80552.txt'
p4832
I193
sS'77659.txt'
p4833
I76
sS'80391.txt'
p4834
I84
sS'78409.txt'
p4835
I104
sS'81283.txt'
p4836
I101
sS'77064.txt'
p4837
I278
sS'81258.txt'
p4838
I64
sS'75911.txt'
p4839
I444
sS'77541.txt'
p4840
I102
sS'80201.txt'
p4841
I202
sS'81026.txt'
p4842
I81
sS'80449.txt'
p4843
I85
sS'79344.txt'
p4844
I81
sS'76021.txt'
p4845
I199
sS'79810.txt'
p4846
I173
sS'80568.txt'
p4847
I55
sS'79118.txt'
p4848
I197
sS'77621.txt'
p4849
I108
sS'80021.txt'
p4850
I267
sS'81505.txt'
p4851
I54
sS'79527.txt'
p4852
I244
sS'80865.txt'
p4853
I82
sS'77660.txt'
p4854
I67
sS'78123.txt'
p4855
I200
sS'78020.txt'
p4856
I146
sS'80025.txt'
p4857
I185
sS'80140.txt'
p4858
I275
sS'80482.txt'
p4859
I74
sS'75897.txt'
p4860
I56
sS'77579.txt'
p4861
I101
sS'75826.txt'
p4862
I74
sS'78539.txt'
p4863
I328
sS'77528.txt'
p4864
I293
sS'80465.txt'
p4865
I112
sS'76069.txt'
p4866
I574
sS'76835.txt'
p4867
I76
sS'76336.txt'
p4868
I120
sS'77129.txt'
p4869
I105
sS'77451.txt'
p4870
I309
sS'79508.txt'
p4871
I154
sS'78630.txt'
p4872
I55
sS'76927.txt'
p4873
I85
sS'77721.txt'
p4874
I171
sS'80422.txt'
p4875
I88
sS'76700.txt'
p4876
I151
sS'76706.txt'
p4877
I372
sS'75837.txt'
p4878
I51
sS'81231.txt'
p4879
I174
sS'76712.txt'
p4880
I67
sS'76494.txt'
p4881
I62
sS'81476.txt'
p4882
I81
sS'79592.txt'
p4883
I183
sS'77582.txt'
p4884
I269
sS'80350.txt'
p4885
I72
sS'77118.txt'
p4886
I149
sS'78892.txt'
p4887
I87
sS'79482.txt'
p4888
I58
sS'81555.txt'
p4889
I493
sS'78550.txt'
p4890
I592
sS'81251.txt'
p4891
I60
sS'75869.txt'
p4892
I130
sS'78281.txt'
p4893
I74
sS'80788.txt'
p4894
I88
sS'77448.txt'
p4895
I59
sS'78663.txt'
p4896
I128
sS'80265.txt'
p4897
I82
sS'80074.txt'
p4898
I297
sS'81637.txt'
p4899
I160
sS'77865.txt'
p4900
I101
sS'77091.txt'
p4901
I189
sS'80715.txt'
p4902
I326
sS'79003.txt'
p4903
I243
sS'78540.txt'
p4904
I80
sS'77757.txt'
p4905
I220
sS'76150.txt'
p4906
I67
sS'76155.txt'
p4907
I259
sS'77034.txt'
p4908
I198
sS'80165.txt'
p4909
I89
sS'79138.txt'
p4910
I85
sS'80339.txt'
p4911
I183
sS'76411.txt'
p4912
I88
sS'80036.txt'
p4913
I84
sS'79759.txt'
p4914
I218
sS'80146.txt'
p4915
I56
sS'77147.txt'
p4916
I94
sS'76748.txt'
p4917
I288
sS'76636.txt'
p4918
I169
sS'77349.txt'
p4919
I194
sS'77785.txt'
p4920
I40
sS'79337.txt'
p4921
I339
sS'78215.txt'
p4922
I156
sS'79740.txt'
p4923
I55
sS'77670.txt'
p4924
I312
sS'77989.txt'
p4925
I171
sS'78945.txt'
p4926
I55
sS'78371.txt'
p4927
I89
sS'76110.txt'
p4928
I158
sS'76623.txt'
p4929
I144
sS'77612.txt'
p4930
I55
sS'80922.txt'
p4931
I165
sS'80720.txt'
p4932
I87
sS'79936.txt'
p4933
I142
sS'77835.txt'
p4934
I99
sS'76984.txt'
p4935
I101
sS'77286.txt'
p4936
I67
sS'77833.txt'
p4937
I206
sS'81005.txt'
p4938
I194
sS'76060.txt'
p4939
I244
sS'78481.txt'
p4940
I146
sS'77512.txt'
p4941
I44
sS'80215.txt'
p4942
I182
sS'80703.txt'
p4943
I99
sS'76557.txt'
p4944
I565
sS'77031.txt'
p4945
I151
sS'78430.txt'
p4946
I82
sS'76355.txt'
p4947
I173
sS'78516.txt'
p4948
I55
sS'76225.txt'
p4949
I88
sS'76867.txt'
p4950
I94
sS'78221.txt'
p4951
I217
sS'79169.txt'
p4952
I187
sS'81531.txt'
p4953
I60
sS'76995.txt'
p4954
I65
sS'80857.txt'
p4955
I60
sS'75742.txt'
p4956
I75
sS'76805.txt'
p4957
I75
sS'78606.txt'
p4958
I244
sS'76546.txt'
p4959
I300
sS'76134.txt'
p4960
I84
sS'81098.txt'
p4961
I231
sS'80128.txt'
p4962
I103
sS'76239.txt'
p4963
I206
sS'79596.txt'
p4964
I357
sS'78857.txt'
p4965
I181
sS'80380.txt'
p4966
I167
sS'77744.txt'
p4967
I48
sS'76082.txt'
p4968
I255
sS'76343.txt'
p4969
I63
sS'76761.txt'
p4970
I96
sS'76872.txt'
p4971
I221
sS'81213.txt'
p4972
I59
sS'77925.txt'
p4973
I233
sS'80189.txt'
p4974
I67
sS'76195.txt'
p4975
I162
sS'77875.txt'
p4976
I220
sS'79488.txt'
p4977
I62
sS'80971.txt'
p4978
I55
sS'77148.txt'
p4979
I84
sS'78385.txt'
p4980
I52
sS'81306.txt'
p4981
I223
sS'81300.txt'
p4982
I222
sS'75933.txt'
p4983
I179
sS'79279.txt'
p4984
I78
sS'77807.txt'
p4985
I41
sS'79128.txt'
p4986
I214
sS'78213.txt'
p4987
I132
sS'78195.txt'
p4988
I156
sS'81608.txt'
p4989
I75
sS'78326.txt'
p4990
I61
sS'76350.txt'
p4991
I99
sS'80866.txt'
p4992
I167
sS'77571.txt'
p4993
I100
sS'76262.txt'
p4994
I237
sS'77934.txt'
p4995
I258
sS'78587.txt'
p4996
I236
sS'76543.txt'
p4997
I60
sS'81295.txt'
p4998
I93
sS'79422.txt'
p4999
I98
sS'78776.txt'
p5000
I94
sS'77679.txt'
p5001
I96
sS'76470.txt'
p5002
I227
sS'80316.txt'
p5003
I212
sS'75879.txt'
p5004
I245
sS'79792.txt'
p5005
I54
sS'76323.txt'
p5006
I256
sS'79978.txt'
p5007
I96
sS'80414.txt'
p5008
I335
sS'81136.txt'
p5009
I66
sS'75772.txt'
p5010
I179
sS'76164.txt'
p5011
I67
sS'78470.txt'
p5012
I95
sS'76916.txt'
p5013
I244
sS'76729.txt'
p5014
I234
sS'79165.txt'
p5015
I55
sS'77774.txt'
p5016
I67
sS'75861.txt'
p5017
I100
sS'79132.txt'
p5018
I75
sS'78713.txt'
p5019
I79
sS'77686.txt'
p5020
I67
sS'78289.txt'
p5021
I149
sS'77624.txt'
p5022
I92
sS'81278.txt'
p5023
I67
sS'79519.txt'
p5024
I49
sS'80365.txt'
p5025
I100
sS'75792.txt'
p5026
I65
sS'81312.txt'
p5027
I338
sS'78439.txt'
p5028
I42
sS'79966.txt'
p5029
I85
sS'76978.txt'
p5030
I116
sS'81125.txt'
p5031
I135
sS'78252.txt'
p5032
I76
sS'81559.txt'
p5033
I125
sS'76224.txt'
p5034
I98
sS'77243.txt'
p5035
I236
sS'78675.txt'
p5036
I75
sS'80495.txt'
p5037
I68
sS'77300.txt'
p5038
I67
sS'81173.txt'
p5039
I169
sS'77814.txt'
p5040
I69
sS'77707.txt'
p5041
I211
sS'76054.txt'
p5042
I41
sS'80694.txt'
p5043
I122
sS'80676.txt'
p5044
I378
sS'76720.txt'
p5045
I57
sS'76031.txt'
p5046
I149
sS'78073.txt'
p5047
I58
sS'79541.txt'
p5048
I218
sS'79191.txt'
p5049
I45
sS'77899.txt'
p5050
I98
sS'80592.txt'
p5051
I447
sS'80068.txt'
p5052
I93
sS'76768.txt'
p5053
I95
sS'78637.txt'
p5054
I188
sS'81418.txt'
p5055
I122
sS'78277.txt'
p5056
I338
sS'78468.txt'
p5057
I49
sS'81443.txt'
p5058
I83
sS'77424.txt'
p5059
I244
sS'76836.txt'
p5060
I79
sS'77444.txt'
p5061
I60
sS'80425.txt'
p5062
I489
sS'79328.txt'
p5063
I69
sS'77002.txt'
p5064
I55
sS'76751.txt'
p5065
I109
sS'79461.txt'
p5066
I258
sS'75969.txt'
p5067
I134
sS'79250.txt'
p5068
I311
sS'78332.txt'
p5069
I84
sS'76590.txt'
p5070
I66
sS'75921.txt'
p5071
I60
sS'76014.txt'
p5072
I276
sS'79569.txt'
p5073
I274
sS'78454.txt'
p5074
I139
sS'80505.txt'
p5075
I93
sS'79634.txt'
p5076
I199
sS'77605.txt'
p5077
I64
sS'76845.txt'
p5078
I237
sS'78778.txt'
p5079
I53
sS'81057.txt'
p5080
I191
sS'81133.txt'
p5081
I244
sS'78807.txt'
p5082
I53
sS'80033.txt'
p5083
I84
sS'80827.txt'
p5084
I110
sS'81172.txt'
p5085
I426
sS'80001.txt'
p5086
I90
sS'78544.txt'
p5087
I85
sS'77163.txt'
p5088
I76
sS'80606.txt'
p5089
I100
sS'78209.txt'
p5090
I92
sS'80250.txt'
p5091
I484
sS'76306.txt'
p5092
I56
sS'79085.txt'
p5093
I198
sS'80954.txt'
p5094
I64
sS'79500.txt'
p5095
I61
sS'79766.txt'
p5096
I35
sS'78001.txt'
p5097
I341
sS'80260.txt'
p5098
I602
sS'76070.txt'
p5099
I364
sS'79453.txt'
p5100
I91
sS'76739.txt'
p5101
I164
sS'76940.txt'
p5102
I76
sS'78743.txt'
p5103
I86
sS'76205.txt'
p5104
I76
sS'79610.txt'
p5105
I174
sS'79090.txt'
p5106
I61
sS'75953.txt'
p5107
I187
sS'77968.txt'
p5108
I67
sS'77464.txt'
p5109
I53
sS'77185.txt'
p5110
I76
sS'78934.txt'
p5111
I335
sS'78206.txt'
p5112
I45
sS'80946.txt'
p5113
I179
sS'77689.txt'
p5114
I105
sS'78993.txt'
p5115
I82
sS'76951.txt'
p5116
I76
sS'80727.txt'
p5117
I93
sS'81622.txt'
p5118
I94
sS'80615.txt'
p5119
I81
sS'77846.txt'
p5120
I389
sS'80852.txt'
p5121
I132
sS'79232.txt'
p5122
I181
sS'75810.txt'
p5123
I130
sS'76292.txt'
p5124
I247
sS'78168.txt'
p5125
I274
sS'79921.txt'
p5126
I101
sS'76778.txt'
p5127
I232
sS'78334.txt'
p5128
I73
sS'77368.txt'
p5129
I183
sS'81271.txt'
p5130
I265
sS'78461.txt'
p5131
I67
sS'79995.txt'
p5132
I182
sS'79721.txt'
p5133
I304
sS'80944.txt'
p5134
I187
sS'76892.txt'
p5135
I97
sS'78128.txt'
p5136
I94
sS'77496.txt'
p5137
I240
sS'77020.txt'
p5138
I156
sS'77853.txt'
p5139
I103
sS'80322.txt'
p5140
I103
sS'79672.txt'
p5141
I48
sS'80220.txt'
p5142
I227
sS'80891.txt'
p5143
I291
sS'76722.txt'
p5144
I267
sS'78565.txt'
p5145
I81
sS'79838.txt'
p5146
I94
sS'76100.txt'
p5147
I96
sS'81389.txt'
p5148
I55
sS'78484.txt'
p5149
I59
sS'78079.txt'
p5150
I151
sS'78294.txt'
p5151
I67
sS'76542.txt'
p5152
I101
sS'77739.txt'
p5153
I43
sS'76603.txt'
p5154
I46
sS'78189.txt'
p5155
I91
sS'81012.txt'
p5156
I61
sS'80093.txt'
p5157
I148
sS'78268.txt'
p5158
I75
sS'79312.txt'
p5159
I2333
sS'78597.txt'
p5160
I232
sS'80976.txt'
p5161
I587
sS'77657.txt'
p5162
I95
sS'79011.txt'
p5163
I94
sS'75883.txt'
p5164
I64
sS'78344.txt'
p5165
I75
sS'76081.txt'
p5166
I84
sS'80804.txt'
p5167
I95
sS'78862.txt'
p5168
I145
sS'77635.txt'
p5169
I97
sS'79436.txt'
p5170
I229
sS'77044.txt'
p5171
I250
sS'78227.txt'
p5172
I42
sS'77192.txt'
p5173
I65
sS'78008.txt'
p5174
I58
sS'79863.txt'
p5175
I407
sS'76929.txt'
p5176
I145
sS'76923.txt'
p5177
I276
sS'77708.txt'
p5178
I97
sS'79111.txt'
p5179
I117
sS'77500.txt'
p5180
I613
sS'78756.txt'
p5181
I224
sS'78657.txt'
p5182
I83
sS'81216.txt'
p5183
I171
sS'76331.txt'
p5184
I76
sS'77642.txt'
p5185
I207
sS'79918.txt'
p5186
I103
sS'80023.txt'
p5187
I240
sS'77929.txt'
p5188
I135
sS'79212.txt'
p5189
I150
sS'81404.txt'
p5190
I54
sS'80042.txt'
p5191
I88
sS'77413.txt'
p5192
I98
sS'77021.txt'
p5193
I72
sS'76440.txt'
p5194
I379
sS'80468.txt'
p5195
I232
sS'78038.txt'
p5196
I351
sS'76732.txt'
p5197
I191
sS'80929.txt'
p5198
I255
sS'79023.txt'
p5199
I133
sS'76812.txt'
p5200
I88
sS'76289.txt'
p5201
I156
sS'79131.txt'
p5202
I63
sS'81113.txt'
p5203
I158
sS'78557.txt'
p5204
I196
sS'79776.txt'
p5205
I90
sS'76373.txt'
p5206
I97
sS'78714.txt'
p5207
I156
sS'77015.txt'
p5208
I79
sS'78354.txt'
p5209
I264
sS'76358.txt'
p5210
I106
sS'75900.txt'
p5211
I96
sS'78448.txt'
p5212
I94
sS'76915.txt'
p5213
I92
sS'80362.txt'
p5214
I93
sS'76388.txt'
p5215
I377
sS'81512.txt'
p5216
I186
sS'79797.txt'
p5217
I55
sS'75864.txt'
p5218
I249
sS'79235.txt'
p5219
I58
sS'75862.txt'
p5220
I89
sS'81194.txt'
p5221
I244
sS'75749.txt'
p5222
I236
sS'77596.txt'
p5223
I84
sS'77910.txt'
p5224
I261
sS'80983.txt'
p5225
I186
sS'77350.txt'
p5226
I307
sS'75824.txt'
p5227
I139
sS'76699.txt'
p5228
I195
sS'77353.txt'
p5229
I137
sS'78025.txt'
p5230
I230
sS'76334.txt'
p5231
I191
sS'79680.txt'
p5232
I70
sS'76244.txt'
p5233
I196
sS'78632.txt'
p5234
I64
sS'76988.txt'
p5235
I118
sS'80062.txt'
p5236
I77
sS'77817.txt'
p5237
I94
sS'77778.txt'
p5238
I79
sS'81064.txt'
p5239
I92
sS'76078.txt'
p5240
I134
sS'76272.txt'
p5241
I95
sS'80420.txt'
p5242
I81
sS'80048.txt'
p5243
I151
sS'78537.txt'
p5244
I223
sS'76963.txt'
p5245
I80
sS'78052.txt'
p5246
I76
sS'76661.txt'
p5247
I55
sS'78491.txt'
p5248
I156
sS'81474.txt'
p5249
I369
sS'80470.txt'
p5250
I63
sS'77580.txt'
p5251
I103
sS'77794.txt'
p5252
I96
sS'79618.txt'
p5253
I181
sS'78895.txt'
p5254
I55
sS'80175.txt'
p5255
I78
sS'76737.txt'
p5256
I233
sS'80768.txt'
p5257
I82
sS'80589.txt'
p5258
I61
sS'80873.txt'
p5259
I95
sS'79445.txt'
p5260
I151
sS'80691.txt'
p5261
I192
sS'76401.txt'
p5262
I208
sS'80059.txt'
p5263
I111
sS'81413.txt'
p5264
I107
sS'76632.txt'
p5265
I230
sS'81333.txt'
p5266
I67
sS'80717.txt'
p5267
I272
sS'77359.txt'
p5268
I79
sS'77388.txt'
p5269
I158
sS'77573.txt'
p5270
I202
sS'79203.txt'
p5271
I70
sS'80780.txt'
p5272
I54
sS'80995.txt'
p5273
I237
sS'75874.txt'
p5274
I76
sS'77727.txt'
p5275
I55
sS'78911.txt'
p5276
I87
sS'76854.txt'
p5277
I97
sS'76897.txt'
p5278
I51
sS'80483.txt'
p5279
I67
sS'79648.txt'
p5280
I160
sS'80756.txt'
p5281
I80
sS'77312.txt'
p5282
I71
sS'79407.txt'
p5283
I38
sS'80668.txt'
p5284
I114
sS'79047.txt'
p5285
I55
sS'78368.txt'
p5286
I276
sS'79698.txt'
p5287
I409
sS'76742.txt'
p5288
I66
sS'77606.txt'
p5289
I73
sS'76766.txt'
p5290
I67
sS'80572.txt'
p5291
I157
sS'81131.txt'
p5292
I219
sS'77690.txt'
p5293
I113
sS'81579.txt'
p5294
I97
sS'76830.txt'
p5295
I56
sS'81052.txt'
p5296
I346
sS'81054.txt'
p5297
I353
sS'75836.txt'
p5298
I142
sS'80283.txt'
p5299
I76
sS'76495.txt'
p5300
I129
sS'80782.txt'
p5301
I156
sS'79612.txt'
p5302
I408
sS'77728.txt'
p5303
I224
sS'80939.txt'
p5304
I188
sS'77308.txt'
p5305
I208
sS'77796.txt'
p5306
I82
sS'78487.txt'
p5307
I57
sS'79332.txt'
p5308
I102
sS'80889.txt'
p5309
I59
sS'77085.txt'
p5310
I87
sS'78341.txt'
p5311
I127
sS'77675.txt'
p5312
I214
sS'81492.txt'
p5313
I87
sS'78260.txt'
p5314
I92
sS'80163.txt'
p5315
I160
sS'75976.txt'
p5316
I92
sS'80920.txt'
p5317
I160
sS'80373.txt'
p5318
I331
sS'78626.txt'
p5319
I187
sS'76571.txt'
p5320
I155
sS'78541.txt'
p5321
I84
sS'78116.txt'
p5322
I55
sS'80217.txt'
p5323
I171
sS'76044.txt'
p5324
I145
sS'76201.txt'
p5325
I98
sS'81338.txt'
p5326
I139
sS'79039.txt'
p5327
I49
sS'77824.txt'
p5328
I1101
sS'75759.txt'
p5329
I52
sS'80506.txt'
p5330
I161
sS'81254.txt'
p5331
I71
sS'75898.txt'
p5332
I76
sS'79271.txt'
p5333
I144
sS'78184.txt'
p5334
I76
sS'75935.txt'
p5335
I71
sS'78989.txt'
p5336
I66
sS'80855.txt'
p5337
I86
sS'78407.txt'
p5338
I337
sS'79874.txt'
p5339
I86
sS'78967.txt'
p5340
I71
sS'81046.txt'
p5341
I98
sS'76525.txt'
p5342
I66
sS'78114.txt'
p5343
I427
sS'75808.txt'
p5344
I56
sS'79036.txt'
p5345
I92
sS'77010.txt'
p5346
I90
sS'81293.txt'
p5347
I59
sS'76131.txt'
p5348
I228
sS'80485.txt'
p5349
I206
sS'76341.txt'
p5350
I279
sS'77117.txt'
p5351
I72
sS'75919.txt'
p5352
I132
sS'78770.txt'
p5353
I86
sS'79943.txt'
p5354
I85
sS'81627.txt'
p5355
I51
sS'78018.txt'
p5356
I55
sS'79601.txt'
p5357
I109
sS'80441.txt'
p5358
I241
sS'80412.txt'
p5359
I442
sS'81549.txt'
p5360
I117
sS'77000.txt'
p5361
I71
sS'81343.txt'
p5362
I345
sS'76084.txt'
p5363
I104
sS'76505.txt'
p5364
I55
sS'80327.txt'
p5365
I251
sS'80321.txt'
p5366
I96
sS'80024.txt'
p5367
I195
sS'81004.txt'
p5368
I201
sS'76786.txt'
p5369
I65
sS'76493.txt'
p5370
I51
sS'76555.txt'
p5371
I56
sS'78672.txt'
p5372
I55
sS'79691.txt'
p5373
I608
sS'76016.txt'
p5374
I222
sS'79794.txt'
p5375
I83
sS'78431.txt'
p5376
I86
sS'81448.txt'
p5377
I141
sS'75845.txt'
p5378
I193
sS'78585.txt'
p5379
I67
sS'79173.txt'
p5380
I76
sS'78220.txt'
p5381
I180
sS'75993.txt'
p5382
I77
sS'76734.txt'
p5383
I55
sS'76994.txt'
p5384
I69
sS'77029.txt'
p5385
I170
sS'76884.txt'
p5386
I221
sS'77482.txt'
p5387
I163
sS'76547.txt'
p5388
I99
sS'81561.txt'
p5389
I107
sS'79209.txt'
p5390
I199
sS'76007.txt'
p5391
I75
sS'77040.txt'
p5392
I79
sS'81239.txt'
p5393
I151
sS'77983.txt'
p5394
I56
sS'78134.txt'
p5395
I87
sS'76675.txt'
p5396
I89
sS'81157.txt'
p5397
I82
sS'77873.txt'
p5398
I67
sS'76932.txt'
p5399
I428
sS'77592.txt'
p5400
I244
sS'76214.txt'
p5401
I48
sS'76609.txt'
p5402
I75
sS'76059.txt'
p5403
I39
sS'79708.txt'
p5404
I52
sS'79939.txt'
p5405
I114
sS'81379.txt'
p5406
I451
sS'81407.txt'
p5407
I160
sS'76238.txt'
p5408
I244
sS'79714.txt'
p5409
I363
sS'77503.txt'
p5410
I270
sS'80367.txt'
p5411
I411
sS'77225.txt'
p5412
I209
sS'75818.txt'
p5413
I71
sS'80439.txt'
p5414
I102
sS'79017.txt'
p5415
I72
sS'78572.txt'
p5416
I113
sS'79429.txt'
p5417
I121
sS'80355.txt'
p5418
I280
sS'79278.txt'
p5419
I87
sS'81127.txt'
p5420
I90
sS'76268.txt'
p5421
I456
sS'80289.txt'
p5422
I170
sS'80056.txt'
p5423
I189
sS'81635.txt'
p5424
I145
sS'77302.txt'
p5425
I424
sS'81171.txt'
p5426
I129
sS'79467.txt'
p5427
I184
sS'79963.txt'
p5428
I246
sS'78969.txt'
p5429
I244
sS'80026.txt'
p5430
I69
sS'80883.txt'
p5431
I86
sS'76624.txt'
p5432
I60
sS'80537.txt'
p5433
I81
sS'80674.txt'
p5434
I71
sS'80617.txt'
p5435
I166
sS'77245.txt'
p5436
I89
sS'77494.txt'
p5437
I73
sS'79094.txt'
p5438
I356
sS'79248.txt'
p5439
I209
sS'80317.txt'
p5440
I80
sS'78928.txt'
p5441
I80
sS'77622.txt'
p5442
I67
sS'75995.txt'
p5443
I65
sS'76973.txt'
p5444
I103
sS'78076.txt'
p5445
I76
sS'80636.txt'
p5446
I166
sS'77235.txt'
p5447
I71
sS'76165.txt'
p5448
I279
sS'80209.txt'
p5449
I587
sS'76040.txt'
p5450
I74
sS'81037.txt'
p5451
I54
sS'80258.txt'
p5452
I144
sS'79133.txt'
p5453
I60
sS'80451.txt'
p5454
I94
sS'77687.txt'
p5455
I88
sS'80493.txt'
p5456
I116
sS'76882.txt'
p5457
I103
sS'79349.txt'
p5458
I59
sS'76437.txt'
p5459
I82
sS'76913.txt'
p5460
I526
sS'79560.txt'
p5461
I202
sS'75793.txt'
p5462
I68
sS'77940.txt'
p5463
I209
sS'81275.txt'
p5464
I210
sS'76013.txt'
p5465
I572
sS'75978.txt'
p5466
I141
sS'81619.txt'
p5467
I83
sS'81299.txt'
p5468
I78
sS'78542.txt'
p5469
I244
sS'76847.txt'
p5470
I258
sS'80539.txt'
p5471
I69
sS'79255.txt'
p5472
I54
sS'81517.txt'
p5473
I115
sS'78402.txt'
p5474
I66
sS'79402.txt'
p5475
I251
sS'79046.txt'
p5476
I76
sS'78365.txt'
p5477
I101
sS'76875.txt'
p5478
I122
sS'75855.txt'
p5479
I88
sS'80825.txt'
p5480
I116
sS'78235.txt'
p5481
I43
sS'80556.txt'
p5482
I98
sS'80806.txt'
p5483
I320
sS'76981.txt'
p5484
I101
sS'78723.txt'
p5485
I88
sS'76192.txt'
p5486
I383
sS'79567.txt'
p5487
I100
sS'77811.txt'
p5488
I208
sS'79661.txt'
p5489
I100
sS'80604.txt'
p5490
I156
sS'80252.txt'
p5491
I290
sS'80590.txt'
p5492
I240
sS'76489.txt'
p5493
I83
sS'77237.txt'
p5494
I98
sS'81370.txt'
p5495
I56
sS'79930.txt'
p5496
I76
sS'80262.txt'
p5497
I82
sS'79179.txt'
p5498
I207
sS'75816.txt'
p5499
I106
sS'77183.txt'
p5500
I465
sS'78141.txt'
p5501
I94
sS'76159.txt'
p5502
I335
sS'77933.txt'
p5503
I257
sS'76837.txt'
p5504
I288
sS'78010.txt'
p5505
I90
sS'76287.txt'
p5506
I56
sS'81087.txt'
p5507
I149
sS'80785.txt'
p5508
I170
sS'76456.txt'
p5509
I139
sS'76363.txt'
p5510
I55
sS'80185.txt'
p5511
I100
sS'81233.txt'
p5512
I140
sS'77901.txt'
p5513
I100
sS'80035.txt'
p5514
I80
sS'77454.txt'
p5515
I481
sS'76486.txt'
p5516
I43
sS'77664.txt'
p5517
I132
sS'79343.txt'
p5518
I59
sS'77074.txt'
p5519
I244
sS'79806.txt'
p5520
I184
sS'79738.txt'
p5521
I84
sS'80302.txt'
p5522
I43
sS'81203.txt'
p5523
I86
sS'78091.txt'
p5524
I235
sS'76246.txt'
p5525
I185
sS'77600.txt'
p5526
I336
sS'78265.txt'
p5527
I78
sS'77896.txt'
p5528
I92
sS'78263.txt'
p5529
I201
sS'76049.txt'
p5530
I87
sS'77939.txt'
p5531
I201
sS'78319.txt'
p5532
I60
sS'75987.txt'
p5533
I181
sS'76443.txt'
p5534
I76
sS'78864.txt'
p5535
I71
sS'78751.txt'
p5536
I244
sS'79282.txt'
p5537
I39
sS'78658.txt'
p5538
I183
sS'75984.txt'
p5539
I165
sS'76427.txt'
p5540
I258
sS'79677.txt'
p5541
I155
sS'77750.txt'
p5542
I205
sS'78000.txt'
p5543
I324
sS'79711.txt'
p5544
I59
sS'81014.txt'
p5545
I226
sS'77741.txt'
p5546
I94
sS'75786.txt'
p5547
I99
sS'79050.txt'
p5548
I334
sS'77700.txt'
p5549
I48
sS'79140.txt'
p5550
I308
sS'76102.txt'
p5551
I55
sS'79416.txt'
p5552
I193
sS'78113.txt'
p5553
I91
sS'76326.txt'
p5554
I101
sS'76204.txt'
p5555
I60
sS'79494.txt'
p5556
I253
sS'79859.txt'
p5557
I75
sS'76414.txt'
p5558
I49
sS'79387.txt'
p5559
I37
sS'81648.txt'
p5560
I455
sS'81434.txt'
p5561
I342
sS'77710.txt'
p5562
I275
sS'81469.txt'
p5563
I130
sS'78639.txt'
p5564
I92
sS'81153.txt'
p5565
I54
sS'80910.txt'
p5566
I588
sS'75907.txt'
p5567
I55
sS'79582.txt'
p5568
I91
sS'79959.txt'
p5569
I59
sS'76083.txt'
p5570
I42
sS'78887.txt'
p5571
I316
sS'79365.txt'
p5572
I75
sS'77114.txt'
p5573
I111
sS'77452.txt'
p5574
I293
sS'78225.txt'
p5575
I153
sS'78728.txt'
p5576
I199
sS'80394.txt'
p5577
I235
sS'78617.txt'
p5578
I75
sS'76446.txt'
p5579
I200
sS'78257.txt'
p5580
I92
sS'81264.txt'
p5581
I150
sS'79920.txt'
p5582
I183
sS'79496.txt'
p5583
I142
sS'78376.txt'
p5584
I99
sS'78097.txt'
p5585
I128
sS'80229.txt'
p5586
I422
sS'77272.txt'
p5587
I104
sS'81214.txt'
p5588
I68
sS'80641.txt'
p5589
I243
sS'79633.txt'
p5590
I56
sS'80417.txt'
p5591
I457
sS'79268.txt'
p5592
I50
sS'80385.txt'
p5593
I84
sS'77598.txt'
p5594
I86
sS'80599.txt'
p5595
I87
sS'80268.txt'
p5596
I138
sS'76583.txt'
p5597
I183
sS'77506.txt'
p5598
I70
sS'77087.txt'
p5599
I58
sS'79176.txt'
p5600
I47
sS'79170.txt'
p5601
I370
sS'78394.txt'
p5602
I55
sS'78295.txt'
p5603
I92
sS'81334.txt'
p5604
I208
sS'76371.txt'
p5605
I98
sS'76862.txt'
p5606
I236
sS'78908.txt'
p5607
I64
sS'76638.txt'
p5608
I75
sS'78119.txt'
p5609
I67
sS'77421.txt'
p5610
I95
sS'78499.txt'
p5611
I74
sS'75902.txt'
p5612
I209
sS'79180.txt'
p5613
I59
sS'77270.txt'
p5614
I194
sS'79313.txt'
p5615
I75
sS'80985.txt'
p5616
I134
sS'80638.txt'
p5617
I83
sS'81632.txt'
p5618
I60
sS'76880.txt'
p5619
I71
sS'79010.txt'
p5620
I86
sS'80334.txt'
p5621
I150
sS'81101.txt'
p5622
I67
sS'79642.txt'
p5623
I79
sS'81273.txt'
p5624
I55
sS'77045.txt'
p5625
I81
sS'81196.txt'
p5626
I235
sS'80557.txt'
p5627
I179
sS'77805.txt'
p5628
I78
sS'80107.txt'
p5629
I244
sS'77298.txt'
p5630
I81
sS'77351.txt'
p5631
I109
sS'77920.txt'
p5632
I91
sS'80832.txt'
p5633
I55
sS'80993.txt'
p5634
I109
sS'76189.txt'
p5635
I149
sS'78015.txt'
p5636
I53
sS'78948.txt'
p5637
I107
sS'78244.txt'
p5638
I37
sS'77242.txt'
p5639
I60
sS'76956.txt'
p5640
I51
sS'80728.txt'
p5641
I399
sS'78316.txt'
p5642
I277
sS'78535.txt'
p5643
I52
sS'79136.txt'
p5644
I250
sS'78120.txt'
p5645
I76
sS'78834.txt'
p5646
I521
sS'79522.txt'
p5647
I47
sS'76651.txt'
p5648
I334
sS'80177.txt'
p5649
I400
sS'79926.txt'
p5650
I461
sS'80044.txt'
p5651
I594
sS'79813.txt'
p5652
I82
sS'80693.txt'
p5653
I85
sS'76476.txt'
p5654
I61
sS'78057.txt'
p5655
I95
sS'79288.txt'
p5656
I90
sS'77854.txt'
p5657
I114
sS'76914.txt'
p5658
I193
sS'78173.txt'
p5659
I70
sS'76864.txt'
p5660
I95
sS'76280.txt'
p5661
I59
sS'78634.txt'
p5662
I66
sS'76792.txt'
p5663
I62
sS'79265.txt'
p5664
I75
sS'81310.txt'
p5665
I372
sS'80426.txt'
p5666
I371
sS'79884.txt'
p5667
I37
sS'78089.txt'
p5668
I80
sS'76018.txt'
p5669
I66
sS'77310.txt'
p5670
I81
sS'77771.txt'
p5671
I55
sS'77905.txt'
p5672
I59
sS'79206.txt'
p5673
I92
sS'76460.txt'
p5674
I154
sS'78919.txt'
p5675
I78
sS'78193.txt'
p5676
I79
sS'79309.txt'
p5677
I259
sS'79843.txt'
p5678
I383
sS'78284.txt'
p5679
I73
sS'77816.txt'
p5680
I95
sS'80979.txt'
p5681
I99
sS'78199.txt'
p5682
I197
sS'77926.txt'
p5683
I307
sS'76832.txt'
p5684
I55
sS'81415.txt'
p5685
I244
sS'80281.txt'
p5686
I214
sS'78360.txt'
p5687
I95
sS'78837.txt'
p5688
I75
sS'78366.txt'
p5689
I372
sS'78474.txt'
p5690
I112
sS'75912.txt'
p5691
I75
sS'81025.txt'
p5692
I83
sS'80429.txt'
p5693
I169
sS'76256.txt'
p5694
I88
sS'78961.txt'
p5695
I49
sS'76207.txt'
p5696
I184
sS'77677.txt'
p5697
I79
sS'76462.txt'
p5698
I95
sS'80446.txt'
p5699
I127
sS'79360.txt'
p5700
I318
sS'81149.txt'
p5701
I263
sS'81198.txt'
p5702
I152
sS'79735.txt'
p5703
I80
sS'77645.txt'
p5704
I57
sS'79917.txt'
p5705
I67
sS'79005.txt'
p5706
I195
sS'79626.txt'
p5707
I107
sS'78080.txt'
p5708
I172
sS'78958.txt'
p5709
I80
sS'77414.txt'
p5710
I147
sS'79156.txt'
p5711
I96
sS'81565.txt'
p5712
I51
sS'80881.txt'
p5713
I450
sS'76407.txt'
p5714
I69
sS'77780.txt'
p5715
I96
sS'79370.txt'
p5716
I87
sS'80574.txt'
p5717
I131
sS'81351.txt'
p5718
I44
sS'76395.txt'
p5719
I112
sS'76855.txt'
p5720
I55
sS'77714.txt'
p5721
I255
sS'75937.txt'
p5722
I96
sS'77527.txt'
p5723
I337
sS'75842.txt'
p5724
I106
sS'79876.txt'
p5725
I101
sS'77742.txt'
p5726
I60
sS'77607.txt'
p5727
I183
sS'79260.txt'
p5728
I79
sS'77077.txt'
p5729
I114
sS'77777.txt'
p5730
I96
sS'81516.txt'
p5731
I106
sS'78328.txt'
p5732
I126
sS'79894.txt'
p5733
I85
sS'78216.txt'
p5734
I185
sS'77948.txt'
p5735
I61
sS'78738.txt'
p5736
I49
sS'77221.txt'
p5737
I202
sS'75970.txt'
p5738
I79
sS'81369.txt'
p5739
I122
sS'80003.txt'
p5740
I179
sS'78453.txt'
p5741
I68
sS'76967.txt'
p5742
I74
sS'77557.txt'
p5743
I90
sS'81625.txt'
p5744
I135
sS'79399.txt'
p5745
I306
sS'75800.txt'
p5746
I197
sS'80586.txt'
p5747
I74
sS'80443.txt'
p5748
I33
sS'79100.txt'
p5749
I166
sS'78203.txt'
p5750
I103
sS'79193.txt'
p5751
I120
sS'76673.txt'
p5752
I77
sS'81159.txt'
p5753
I86
sS'76901.txt'
p5754
I171
sS'79219.txt'
p5755
I103
sS'80491.txt'
p5756
I89
sS'80699.txt'
p5757
I170
sS'77111.txt'
p5758
I60
sS'76726.txt'
p5759
I454
sS'79053.txt'
p5760
I88
sS'77403.txt'
p5761
I55
sS'79749.txt'
p5762
I76
sS'76199.txt'
p5763
I182
sS'81102.txt'
p5764
I75
sS'75951.txt'
p5765
I66
sS'79911.txt'
p5766
I109
sS'79095.txt'
p5767
I244
sS'77172.txt'
p5768
I218
sS'79468.txt'
p5769
I132
sS'78651.txt'
p5770
I60
sS'77046.txt'
p5771
I352
sS'75847.txt'
p5772
I95
sS'77555.txt'
p5773
I138
sS'79270.txt'
p5774
I367
sS'78605.txt'
p5775
I80
sS'79819.txt'
p5776
I162
sS'81607.txt'
p5777
I314
sS'77480.txt'
p5778
I105
sS'79393.txt'
p5779
I83
sS'79491.txt'
p5780
I71
sS'81591.txt'
p5781
I336
sS'78566.txt'
p5782
I60
sS'81585.txt'
p5783
I226
sS'81398.txt'
p5784
I87
sS'79702.txt'
p5785
I245
sS'81118.txt'
p5786
I61
sS'80478.txt'
p5787
I96
sS'78946.txt'
p5788
I75
sS'80514.txt'
p5789
I177
sS'76133.txt'
p5790
I83
sS'77334.txt'
p5791
I91
sS'81272.txt'
p5792
I61
sS'80619.txt'
p5793
I289
sS'81093.txt'
p5794
I214
sS'80103.txt'
p5795
I108
sS'76853.txt'
p5796
I72
sS'81359.txt'
p5797
I81
sS'78748.txt'
p5798
I411
sS'80630.txt'
p5799
I97
sS'77295.txt'
p5800
I97
sS'81030.txt'
p5801
I111
sS'78176.txt'
p5802
I297
sS'78301.txt'
p5803
I85
sS'77411.txt'
p5804
I67
sS'77501.txt'
p5805
I99
sS'79105.txt'
p5806
I83
sS'81296.txt'
p5807
I103
sS'80642.txt'
p5808
I295
sS'79015.txt'
p5809
I144
sS'78775.txt'
p5810
I153
sS'78953.txt'
p5811
I157
sS'76618.txt'
p5812
I96
sS'79101.txt'
p5813
I93
sS'79427.txt'
p5814
I102
sS'78698.txt'
p5815
I66
sS'79067.txt'
p5816
I494
sS'80054.txt'
p5817
I50
sS'78997.txt'
p5818
I60
sS'79227.txt'
p5819
I46
sS'79135.txt'
p5820
I96
sS'79726.txt'
p5821
I66
sS'80536.txt'
p5822
I172
sS'79640.txt'
p5823
I258
sS'76468.txt'
p5824
I76
sS'81019.txt'
p5825
I94
sS'78642.txt'
p5826
I82
sS'79114.txt'
p5827
I75
sS'77946.txt'
p5828
I63
sS'77594.txt'
p5829
I106
sS'78717.txt'
p5830
I67
sS'78854.txt'
p5831
I72
sS'76125.txt'
p5832
I84
sS'76006.txt'
p5833
I145
sS'80361.txt'
p5834
I219
sS'80961.txt'
p5835
I396
sS'79525.txt'
p5836
I162
sS'77893.txt'
p5837
I55
sS'77652.txt'
p5838
I91
sS'80808.txt'
p5839
I86
sS'80765.txt'
p5840
I86
sS'77848.txt'
p5841
I60
sS'76565.txt'
p5842
I163
sS'76747.txt'
p5843
I195
sS'80962.txt'
p5844
I228
sS'76020.txt'
p5845
I218
sS'79669.txt'
p5846
I225
sS'81376.txt'
p5847
I133
sS'81035.txt'
p5848
I124
sS'78416.txt'
p5849
I81
sS'81534.txt'
p5850
I104
sS'78349.txt'
p5851
I171
sS'76025.txt'
p5852
I117
sS'76801.txt'
p5853
I80
sS'78247.txt'
p5854
I96
sS'79187.txt'
p5855
I244
sS'78845.txt'
p5856
I67
sS'80831.txt'
p5857
I80
sS'76911.txt'
p5858
I261
sS'77324.txt'
p5859
I60
sS'79163.txt'
p5860
I160
sS'79403.txt'
p5861
I66
sS'77892.txt'
p5862
I103
sS'81072.txt'
p5863
I356
sS'78950.txt'
p5864
I201
sS'78593.txt'
p5865
I55
sS'79937.txt'
p5866
I149
sS'78803.txt'
p5867
I84
sS'79908.txt'
p5868
I67
sS'79658.txt'
p5869
I48
sS'76365.txt'
p5870
I67
sS'80305.txt'
p5871
I171
sS'79597.txt'
p5872
I151
sS'79998.txt'
p5873
I75
sS'79074.txt'
p5874
I148
sS'76818.txt'
p5875
I233
sS'81235.txt'
p5876
I107
sS'79304.txt'
p5877
I103
sS'80542.txt'
p5878
I68
sS'79830.txt'
p5879
I244
sS'76190.txt'
p5880
I224
sS'79746.txt'
p5881
I92
sS'79565.txt'
p5882
I216
sS'80968.txt'
p5883
I58
sS'77813.txt'
p5884
I49
sS'79462.txt'
p5885
I244
sS'77007.txt'
p5886
I61
sS'77821.txt'
p5887
I67
sS'80457.txt'
p5888
I170
sS'78689.txt'
p5889
I279
sS'78074.txt'
p5890
I55
sS'76038.txt'
p5891
I134
sS'77693.txt'
p5892
I105
sS'80934.txt'
p5893
I107
sS'76972.txt'
p5894
I66
sS'81355.txt'
p5895
I90
sS'78308.txt'
p5896
I236
sS'75814.txt'
p5897
I111
sS'77134.txt'
p5898
I89
sS'76349.txt'
p5899
I97
sS'79152.txt'
p5900
I82
sS'75781.txt'
p5901
I78
sS'80988.txt'
p5902
I85
sS'79555.txt'
p5903
I172
sS'80958.txt'
p5904
I61
sS'77654.txt'
p5905
I170
sS'76841.txt'
p5906
I132
sS'79902.txt'
p5907
I173
sS'78331.txt'
p5908
I245
sS'79404.txt'
p5909
I284
sS'76442.txt'
p5910
I120
sS'77566.txt'
p5911
I78
sS'75853.txt'
p5912
I188
sS'78147.txt'
p5913
I108
sS'80472.txt'
p5914
I55
sS'78022.txt'
p5915
I66
sS'77417.txt'
p5916
I202
s.