(dp0
I0
(lp1
S''
p2
a(dp3
S'75741.txt'
p4
I7
sS'75742.txt'
p5
I1
sasI926930860582723585
(lp6
S'limited'
p7
a(dp8
S'75750.txt'
p9
I1
sS'75745.txt'
p10
I1
sS'75747.txt'
p11
I1
sS'75744.txt'
p12
I1
sS'75743.txt'
p13
I1
sg5
I1
sS'75749.txt'
p14
I1
sS'75748.txt'
p15
I1
sg4
I1
sS'75746.txt'
p16
I1
sasI8877943558228353026
(lp17
S'forlange'
p18
a(dp19
S'75754.txt'
p20
I1
sasI-1750316427685531306
(lp21
S'38729'
p22
a(dp23
g4
I1
sasI6668907889161957384
(lp24
S'nettoprisindekset'
p25
a(dp26
g14
I1
sS'75758.txt'
p27
I1
sasI4667734158465051841
(lp28
S'-98'
p29
a(dp30
g9
I2
sasI7758398051249520652
(lp31
S'ogs\xc3\xa5'
p32
a(dp33
g11
I1
sg20
I1
sS'75757.txt'
p34
I1
sg13
I1
sg14
I4
sg15
I2
sasI-6375140182031890419
(lp35
S'traditionelt'
p36
a(dp37
g14
I1
sasI8461927972773738510
(lp38
S'14914'
p39
a(dp40
g5
I1
sasI1289567620912478224
(lp41
S'010'
p42
a(dp43
g5
I1
sasI709249584440918033
(lp44
S'andre'
p45
a(dp46
g14
I1
sg16
I2
sg20
I1
sasI61923213772157717
(lp47
S'udvidelsen'
p48
a(dp49
g10
I1
sasI2461895972719738542
(lp50
S'12390'
p51
a(dp52
g5
I1
sasI1289567620912478232
(lp53
S'018'
p54
a(dp55
g5
I1
sasI2901904077277350040
(lp56
S'hidr\xc3\xb8rer'
p57
a(dp58
g34
I1
sasI4461919972865738783
(lp59
S'10515'
p60
a(dp61
S'75755.txt'
p62
I1
sasI-6868609940655866874
(lp63
S'pessimistiske'
p64
a(dp65
g20
I1
sasI-243980909701769177
(lp66
S'lille'
p67
a(dp68
g20
I2
sasI4087319888890063190
(lp69
S'\xc3\xa5rets'
p70
a(dp71
S'75752.txt'
p72
I1
sg20
I1
sasI-8220238511797391319
(lp73
S'direkt\xc3\xb8r'
p74
a(dp75
g10
I1
sasI7746269624497784157
(lp76
S'mindre'
p77
a(dp78
S'75753.txt'
p79
I1
sg20
I1
sasI-4668397710515308745
(lp80
S'papir'
p81
a(dp82
g15
I1
sasI-5807489975576313805
(lp83
S'elementfrabrik'
p84
a(dp85
g10
I1
sasI-2088598916599095244
(lp86
S'340'
p87
a(dp88
g16
I1
sasI2121896850519711799
(lp89
S'under'
p90
a(dp91
g13
I1
sasI-7718876479158384583
(lp92
S'811'
p93
a(dp94
g12
I1
sasI-7693323964257144773
(lp95
S'020-030'
p96
a(dp97
g11
I1
sasI-4075673046543951812
(lp98
S'forudser'
p99
a(dp100
g20
I1
sg11
I1
sasI-1371557729061152704
(lp101
S'jakob'
p102
a(dp103
g10
I2
sasI-4952162359153963982
(lp104
S'tvangsauktioner'
p105
a(dp106
S'75760.txt'
p107
I2
sasI6249733572565469254
(lp108
S'30-yr'
p109
a(dp110
g5
I1
sasI-5303253345833048735
(lp111
S'gns'
p112
a(dp113
g9
I1
sasI-5794240700265443256
(lp114
S'introduceret'
p115
a(dp116
S'75756.txt'
p117
I1
sasI-9041893884744478708
(lp118
S'dollar'
p119
a(dp120
g12
I1
sasI76608492332976204
(lp121
S'b\xc3\x98rsnoteres'
p122
a(dp123
g10
I1
sasI4814045714755610702
(lp124
S'2857'
p125
a(dp126
g9
I1
sasI-5540135624821835697
(lp127
S'repo-rente'
p128
a(dp129
g11
I2
sasI-8219752786763294638
(lp130
S'sommerens'
p131
a(dp132
g14
I1
sasI659472584120336837
(lp133
S'1172'
p134
a(dp135
g20
I1
sasI-9038297461229410217
(lp136
S'henf\xc3\xb8res'
p137
a(dp138
g34
I1
sasI2461898972734738520
(lp139
S'12060'
p140
a(dp141
g4
I1
sasI-8681977952385426502
(lp142
S'delvist'
p143
a(dp144
g27
I1
sasI5539577469769062491
(lp145
S'obligationskurserne'
p146
a(dp147
S'75751.txt'
p148
I1
sasI-509539383351783329
(lp149
S'fald'
p150
a(dp151
g15
I2
sg107
I1
sg20
I3
sasI3008991115392782433
(lp152
S'pbt'
p153
a(dp154
g11
I1
sasI-360548248354330526
(lp155
S'tisdag'
p156
a(dp157
g14
I1
sasI-5719875996313764506
(lp158
S'bolig-og'
p159
a(dp160
g34
I1
sasI5370211736360463147
(lp161
S'forbruger-og'
p162
a(dp163
g14
I2
sasI-1495230934642648980
(lp164
S'tre'
p165
a(dp166
g34
I1
sg11
I2
sasI659471584120336841
(lp167
S'1271'
p168
a(dp169
g34
I1
sasI-9203989187387346834
(lp170
S'voksede'
p171
a(dp172
g13
I1
sasI3924939300762844608
(lp173
S'pr\xc3\xa6get'
p174
a(dp175
g117
I1
sg148
I1
sasI-8258358855835666754
(lp176
S'forventninger'
p177
a(dp178
g20
I1
sg15
I1
sg11
I2
sasI8655533946003832950
(lp179
S'dagens'
p180
a(dp181
g12
I2
sg13
I1
sasI-8789384449773127558
(lp182
S'estimat'
p183
a(dp184
g20
I1
sasI-7462075975965941398
(lp185
S'kursreg'
p186
a(dp187
g16
I2
sg79
I1
sasI735286230275788821
(lp188
S'\xc3\xa5rs'
p189
a(dp190
g15
I1
sasI34807307989534849
(lp191
S'ville'
p192
a(dp193
g14
I1
sg20
I2
sasI-43228564856571774
(lp194
S'underskuddet'
p195
a(dp196
g12
I1
sasI-7152095649853851517
(lp197
S'8230'
p198
a(dp199
g5
I1
sasI3645056747161490044
(lp200
S'g\xc3\xa6t'
p201
a(dp202
g20
I1
sasI8305781964834848907
(lp203
S'lavere'
p204
a(dp205
g12
I1
sg20
I1
sg11
I2
sasI163512108413620365
(lp206
S'190'
p207
a(dp208
g9
I3
sasI12544075362113219
(lp209
S'bg'
p210
a(dp211
g148
I1
sasI-1840383907614881643
(lp212
S'sigt'
p213
a(dp214
g15
I1
sg11
I1
sasI8228285718472736919
(lp215
S'prognos'
p216
a(dp217
g20
I1
sasI-1708758334118741864
(lp218
S'forbrugerpriser'
p219
a(dp220
g14
I1
sg27
I1
sasI-8927238616029890406
(lp221
S'gebyr'
p222
a(dp223
g16
I1
sasI1700584590639652549
(lp224
S'\xc3\xb8nsker'
p225
a(dp226
g20
I1
sasI-2460804574895564632
(lp227
S'retning'
p228
a(dp229
g11
I1
sasI2314160222677391553
(lp230
S't\xc3\xb8j'
p231
a(dp232
g14
I1
sasI5261102140405498026
(lp233
S'ned'
p234
a(dp235
g20
I1
sg11
I1
sasI7192426167803240620
(lp236
S't-bond'
p237
a(dp238
g5
I1
sasI2461898972727738541
(lp239
S'12010'
p240
a(dp241
g4
I1
sasI8968601845111883950
(lp242
S'3021'
p243
a(dp244
g14
I1
sasI6272037681056617
(lp245
S'18'
p246
a(dp247
g72
I1
sg16
I1
sg9
I1
sg117
I1
sasI8639268678062071985
(lp248
S'kun'
p249
a(dp250
g14
I1
sg20
I2
sasI8012858924923947186
(lp251
S'bank-og'
p252
a(dp253
g15
I1
sasI-1544742928268322635
(lp254
S'papir-og'
p255
a(dp256
g15
I1
sasI-8139544016919160649
(lp257
S'inden'
p258
a(dp259
g15
I4
sasI5261102140405498041
(lp260
S'new'
p261
a(dp262
g5
I1
sasI1843801515488469182
(lp263
S'energipriserne'
p264
a(dp265
g14
I3
sasI3970989286488154303
(lp266
S'artede'
p267
a(dp268
g148
I1
sasI6387157653028356289
(lp269
S'med'
p270
a(dp271
g27
I3
sg10
I1
sg11
I1
sg34
I1
sg13
I1
sg14
I3
sg15
I1
sg20
I6
sg72
I2
sg62
I1
sg79
I3
sg117
I2
sasI-118411821770301246
(lp272
S'indtjening'
p273
a(dp274
g11
I1
sasI-7939471098682281788
(lp275
S'prognoser'
p276
a(dp277
g14
I1
sasI659471584116336838
(lp278
S'1232'
p279
a(dp280
g5
I1
sasI-1707588853577547575
(lp281
S'h\xc3\xa5rde'
p282
a(dp283
g34
I1
sasI-8452477337709898478
(lp284
S'h\xc3\xb8jere'
p285
a(dp286
g62
I1
sg20
I1
sasI6387157653028356299
(lp287
S'men'
p288
a(dp289
g20
I2
sg12
I1
sg11
I1
sg148
I1
sg15
I2
sg79
I1
sasI-3290618127876130612
(lp290
S'handelstallet'
p291
a(dp292
g12
I1
sasI6053006072571388109
(lp293
S'flere'
p294
a(dp295
g117
I2
sg11
I1
sasI1998430478927554766
(lp296
S'us-dollar'
p297
a(dp298
g13
I1
sasI5459429048681651917
(lp299
S'engangsbetalinger'
p300
a(dp301
g117
I3
sasI-4385816380657671982
(lp302
S'afventende'
p303
a(dp304
g62
I1
sg13
I1
sasI-347503181883010694
(lp305
S'betaling'
p306
a(dp307
g117
I1
sasI7583414078580623672
(lp308
S'positivt'
p309
a(dp310
g15
I1
sg20
I1
sasI-2476711274625522929
(lp311
S'l\xc3\xb8be'
p312
a(dp313
g20
I1
sasI1037069946770194661
(lp314
S'forhold'
p315
a(dp316
g27
I1
sg107
I1
sS'75759.txt'
p317
I2
sg12
I1
sg13
I1
sg14
I2
sg15
I2
sasI-5271329851450945305
(lp318
S'elementfabrikken'
p319
a(dp320
g10
I1
sasI6528039219058920
(lp321
S'33'
p322
a(dp323
g16
I4
sg79
I1
sasI6528039219058921
(lp324
S'32'
p325
a(dp326
g15
I1
sg317
I1
sasI6528039219058922
(lp327
S'31'
p328
a(dp329
g16
I1
sasI6528039219058923
(lp330
S'30'
p331
a(dp332
g15
I1
sasI6528039219058924
(lp333
S'37'
p334
a(dp335
g16
I1
sasI4957468684607094482
(lp336
S'eventuel'
p337
a(dp338
g62
I1
sasI6528039219058927
(lp339
S'34'
p340
a(dp341
g16
I3
sasI4357304801781012750
(lp342
S'private'
p343
a(dp344
g34
I1
sasI8781971318442100980
(lp345
S'lukkekurs'
p346
a(dp347
g148
I1
sasI-5703086680724791051
(lp348
S'ekspansion'
p349
a(dp350
g10
I1
sasI-5330295469811521287
(lp351
S'offentligg\xc3\xb8res'
p352
a(dp353
g20
I1
sasI4706793427313762558
(lp354
S'us-handelstal'
p355
a(dp356
g12
I1
sasI-2088598916602095355
(lp357
S'338'
p358
a(dp359
g16
I1
sasI4461920972869738759
(lp360
S'10410'
p361
a(dp362
g4
I1
sasI826564886615175433
(lp363
S'marginal'
p364
a(dp365
g20
I1
sasI-2088598916602095350
(lp366
S'337'
p367
a(dp368
g20
I1
sasI-3801225455926201641
(lp369
S'flyttet'
p370
a(dp371
g13
I1
sasI-4166740487933699828
(lp372
S'n\xc3\xa5r'
p373
a(dp374
g14
I1
sasI-2088598916602095347
(lp375
S'330'
p376
a(dp377
g16
I1
sasI-3747341959693364978
(lp378
S'vil'
p379
a(dp380
g10
I2
sg11
I1
sg13
I2
sg148
I2
sg14
I2
sg20
I3
sg72
I1
sg62
I1
sg117
I2
sasI2942891284226057603
(lp381
S'udl\xc3\x85n'
p382
a(dp383
g34
I1
sasI2077751620112671790
(lp384
S'nettorente'
p385
a(dp386
g79
I1
sasI7488707180900837081
(lp387
S'aktiemarked'
p388
a(dp389
g148
I1
sasI-1554806188345609960
(lp390
S'bagmure'
p391
a(dp392
g10
I1
sasI4461921972869738777
(lp393
S'10795'
p394
a(dp395
g12
I1
sg13
I1
sasI6217256416355952093
(lp396
S'\xc3\xb8ges'
p397
a(dp398
g20
I1
sasI7353935562371703067
(lp399
S'total'
p400
a(dp401
g5
I1
sasI4461921972869738780
(lp402
S'10790'
p403
a(dp404
g13
I1
sasI4142563773862848218
(lp405
S'post'
p406
a(dp407
g20
I2
sasI4519790120451594526
(lp408
S'handelsbalancen'
p409
a(dp410
g12
I1
sasI2285107785100380549
(lp411
S'exord'
p412
a(dp413
g16
I1
sg9
I1
sasI-2621286447024506589
(lp414
S'usd'
p415
a(dp416
g12
I4
sasI6149893062937946404
(lp417
S'skyldes'
p418
a(dp419
g34
I1
sg14
I1
sasI-2275790604474593074
(lp420
S'modsat'
p421
a(dp422
g20
I1
sasI-2621286447024506586
(lp423
S'usa'
p424
a(dp425
g12
I1
sg13
I1
sasI14848089204133937
(lp426
S'to'
p427
a(dp428
g20
I2
sasI823465138353271081
(lp429
S'kroneprisen'
p430
a(dp431
g13
I1
sasI-2174834322495635158
(lp432
S'besk\xc3\xa6ftigelsesudviklingen'
p433
a(dp434
g15
I1
sasI-3360369060921327316
(lp435
S'torsdagens'
p436
a(dp437
g13
I1
sasI1956070917484126509
(lp438
S'negative'
p439
a(dp440
g15
I1
sg11
I1
sasI-7216138346689863971
(lp441
S'afventer'
p442
a(dp443
g62
I3
sasI-2088598916599095245
(lp444
S'347'
p445
a(dp446
g20
I1
sasI7642272365246380341
(lp447
S'fremg\xc3\xa5r'
p448
a(dp449
g72
I1
sg15
I2
sg11
I1
sasI13952083821125942
(lp450
S'm3'
p451
a(dp452
g13
I3
sasI6912020791
(lp453
S'6'
p454
a(dp455
g5
I1
sasI2034827308046534968
(lp456
S'vores'
p457
a(dp458
g12
I1
sasI5811349821258387772
(lp459
S'skillev\xc3\xa6gge'
p460
a(dp461
g10
I1
sasI4477148872017925790
(lp462
S'brent'
p463
a(dp464
g4
I1
sasI-8321014616845971137
(lp465
S'more'
p466
a(dp467
g27
I1
sg117
I1
sg317
I1
sg20
I1
sg34
I1
sg148
I1
sg107
I1
sg72
I1
sg62
I1
sg79
I1
sasI735291230141788482
(lp468
S'\xc3\xb8re'
p469
a(dp470
g12
I1
sg13
I1
sasI6399817567305259333
(lp471
S'morgenens'
p472
a(dp473
g13
I1
sasI7757358132458080586
(lp474
S'kemisk'
p475
a(dp476
g15
I2
sasI-1202952343134885554
(lp477
S'udl\xc3\xb8st'
p478
a(dp479
g117
I1
sasI-1840390907728881864
(lp480
S'spar'
p481
a(dp482
g34
I1
sasI7333971250071980374
(lp483
S'skudt'
p484
a(dp485
g13
I1
sasI-2290128292864779945
(lp486
S'sv\xc3\xa6kkelse'
p487
a(dp488
g13
I1
sasI7296043833065818
(lp489
S'93'
p490
a(dp491
g16
I1
sasI7296043833065819
(lp492
S'92'
p493
a(dp494
g4
I1
sg16
I1
sg13
I1
sasI7296043833065820
(lp495
S'95'
p496
a(dp497
g16
I3
sg9
I3
sasI7296043833065821
(lp498
S'94'
p499
a(dp500
g12
I1
sg16
I1
sasI7296043833065822
(lp501
S'97'
p502
a(dp503
g10
I1
sasI7296043833065823
(lp504
S'96'
p505
a(dp506
g16
I3
sg9
I3
sasI659480584134336866
(lp507
S'1993'
p508
a(dp509
g14
I1
sasI-152877286671922845
(lp510
S'unibanks'
p511
a(dp512
g20
I1
sasI659480584134336868
(lp513
S'1995'
p514
a(dp515
g9
I1
sg117
I2
sg317
I1
sg20
I1
sg13
I1
sg14
I1
sg27
I2
sg72
I3
sg16
I1
sasI659480584134336870
(lp516
S'1997'
p517
a(dp518
g15
I2
sasI659480584134336871
(lp519
S'1996'
p520
a(dp521
g9
I2
sg10
I1
sg34
I2
sg11
I1
sg12
I1
sg107
I1
sg13
I1
sg5
I1
sg14
I2
sg27
I1
sg15
I1
sg317
I1
sg72
I1
sg20
I2
sg4
I1
sg16
I2
sg79
I1
sasI-1925086808199474838
(lp522
S'der'
p523
a(dp524
g10
I1
sg317
I1
sg11
I1
sg13
I2
sg148
I2
sg15
I4
sg20
I7
sg62
I1
sg79
I1
sg117
I2
sasI-1925086808199474836
(lp525
S'det'
p526
a(dp527
g9
I1
sg10
I3
sg34
I1
sg11
I3
sg12
I3
sg13
I2
sg148
I3
sg14
I4
sg15
I2
sg317
I3
sg20
I9
sg72
I2
sg62
I2
sg117
I1
sasI13952083821126003
(lp528
S'mv'
p529
a(dp530
g16
I1
sasI8639268678055072116
(lp531
S'klp'
p532
a(dp533
g12
I1
sg14
I1
sg13
I1
sasI-1925086808199474827
(lp534
S'dem'
p535
a(dp536
g13
I1
sasI-1925086808199474826
(lp537
S'den'
p538
a(dp539
g27
I1
sg34
I3
sg11
I4
sg12
I6
sg13
I5
sg5
I1
sg14
I1
sg20
I9
sg4
I1
sg62
I1
sasI8894945980203509481
(lp540
S'banken'
p541
a(dp542
g34
I1
sg11
I4
sasI2046725906957422968
(lp543
S'indtil'
p544
a(dp545
g148
I1
sasI4568002172941873529
(lp546
S'01-02'
p547
a(dp548
g14
I1
sasI-4741642297732875910
(lp549
S'n\xc3\xa6rmet'
p550
a(dp551
g12
I1
sasI-2943141505273634434
(lp552
S'k\xc3\x98benhavn'
p553
a(dp554
g9
I1
sg10
I1
sg34
I1
sg11
I1
sg12
I1
sg13
I1
sg148
I1
sg14
I1
sg27
I1
sg15
I1
sg317
I1
sg107
I1
sg20
I1
sg72
I1
sg16
I1
sg79
I1
sg62
I1
sg117
I1
sasI-6095600368498985579
(lp555
S'indtjeningen'
p556
a(dp557
g72
I1
sasI-1268404142158068912
(lp558
S'en-to'
p559
a(dp560
g20
I1
sasI6731378819400235394
(lp561
S'regnskabet'
p562
a(dp563
g148
I1
sg20
I1
sasI-5764745758157616765
(lp564
S'analytikernes'
p565
a(dp566
g20
I2
sasI2340129597269391748
(lp567
S'behersket'
p568
a(dp569
g11
I1
sasI-7604836333506159210
(lp570
S'm3-tal'
p571
a(dp572
g12
I1
sg62
I1
sasI910401357061241224
(lp573
S'udgifter'
p574
a(dp575
g20
I1
sasI7037279317343488397
(lp576
S'likviditetsomr\xc3\xa5de'
p577
a(dp578
g11
I2
sasI-2129091644992021751
(lp579
S'u\xc3\xa6ndret'
p580
a(dp581
g79
I1
sg15
I2
sasI3250384995861576081
(lp582
S'formiddagens'
p583
a(dp584
g12
I1
sasI-2827742961267894199
(lp585
S'hensat'
p586
a(dp587
g16
I2
sasI-4753171814488133229
(lp588
S'energisegmentet'
p589
a(dp590
g14
I1
sasI-1236280562967854700
(lp591
S'barbere'
p592
a(dp593
g20
I1
sasI8968601845115883925
(lp594
S'3066'
p595
a(dp596
g20
I1
sasI-1495230934627649130
(lp597
S'tab'
p598
a(dp599
g20
I2
sasI5923938946482478975
(lp600
S'bedre'
p601
a(dp602
g20
I2
sasI-1495230934627649128
(lp603
S'tal'
p604
a(dp605
g12
I1
sg16
I3
sg20
I1
sasI1042124697228984729
(lp606
S'm3-pengem\xc3\xa6ngdetal'
p607
a(dp608
g62
I1
sasI34812308126535407
(lp609
S'visse'
p610
a(dp611
g117
I1
sasI659473584134336930
(lp612
S'1052'
p613
a(dp614
g12
I1
sg13
I1
sasI-3051142320843333212
(lp615
S'end'
p616
a(dp617
g12
I1
sg20
I4
sasI659473584134336933
(lp618
S'1055'
p619
a(dp620
g12
I1
sasI-3495084546366936665
(lp621
S'0656'
p622
a(dp623
g4
I1
sasI6438986543567808937
(lp624
S'arbejder'
p625
a(dp626
g117
I1
sasI3340189678450481579
(lp627
S'reuter'
p628
a(dp629
g9
I1
sg10
I1
sg34
I1
sg11
I1
sg12
I1
sg13
I1
sg148
I1
sg14
I1
sg27
I1
sg15
I1
sg317
I1
sg107
I1
sg20
I1
sg72
I1
sg16
I1
sg79
I1
sg62
I1
sg117
I1
sasI5261102140409498030
(lp630
S'nyt'
p631
a(dp632
g148
I1
sasI-4106647396180071575
(lp633
S'rente-'
p634
a(dp635
g16
I1
sasI6272018864
(lp636
S'1'
p637
a(dp638
g34
I1
sg16
I6
sg79
I1
sg117
I2
sasI4909584874624194994
(lp639
S'korrigeret'
p640
a(dp641
g107
I1
sg317
I1
sasI-6140948109107703373
(lp642
S'larsen'
p643
a(dp644
g14
I2
sasI-369175422004790860
(lp645
S'sig'
p646
a(dp647
g117
I1
sg11
I1
sg20
I1
sg12
I5
sg13
I1
sg148
I1
sasI-7783118222091464265
(lp648
S'if\xc3\xb8lge'
p649
a(dp650
g34
I1
sg13
I1
sg10
I1
sasI2278639190369419705
(lp651
S'stille'
p652
a(dp653
g62
I3
sasI1066598384485769658
(lp654
S'f\xc3\xb8lger'
p655
a(dp656
g16
I1
sg20
I1
sasI2273215666841971131
(lp657
S'\xc3\xb8konomer'
p658
a(dp659
g12
I1
sg14
I2
sasI5020373546707540412
(lp660
S'v\xc3\xa6ksten'
p661
a(dp662
g34
I1
sasI-7710524295081042869
(lp663
S'kvart'
p664
a(dp665
g13
I1
sasI-1110354131349200444
(lp666
S'seneste'
p667
a(dp668
g4
I1
sg20
I1
sg5
I1
sg11
I2
sasI-1082387012570455495
(lp669
S'indev\xc3\xa6rende'
p670
a(dp671
g15
I1
sasI-4288726454591639095
(lp672
S'bl\xc3\xb8dt'
p673
a(dp674
g148
I1
sasI7287767778732310987
(lp675
S'markedet'
p676
a(dp677
g62
I2
sasI7287767778732310989
(lp678
S'markeder'
p679
a(dp680
g11
I1
sasI-8321020616852971057
(lp681
S'mest'
p682
a(dp683
g15
I2
sg20
I3
sasI-2645651450634757680
(lp684
S'dealerne'
p685
a(dp686
g12
I1
sasI-509539383361783343
(lp687
S'fart'
p688
a(dp689
g148
I1
sasI8151485969797290454
(lp690
S'frfdkk'
p691
a(dp692
g12
I1
sg13
I1
sasI2260127952950462935
(lp693
S'dollaren'
p694
a(dp695
g12
I2
sasI5971045325582305753
(lp696
S'lidt'
p697
a(dp698
g20
I1
sg13
I1
sg148
I1
sg11
I1
sasI-7152095649856851494
(lp699
S'8240'
p700
a(dp701
g5
I1
sasI12800076900115535
(lp702
S'da'
p703
a(dp704
g12
I1
sasI-3959268269950015750
(lp705
S'tr\xc3\x86de'
p706
a(dp707
g148
I1
sasI1318960168402674085
(lp708
S'bund'
p709
a(dp710
g5
I1
sasI-5721376809469579840
(lp711
S'status'
p712
a(dp713
g117
I1
sasI-438752184774712075
(lp714
S'kommet'
p715
a(dp716
g20
I1
sasI2442050457240916452
(lp717
S'ligger'
p718
a(dp719
g13
I1
sasI6274450838971367909
(lp720
S'metalindustrien'
p721
a(dp722
g15
I1
sasI-6429308858219906423
(lp723
S'hlv'
p724
a(dp725
g34
I1
sg16
I7
sg9
I6
sg79
I1
sasI-1268472142655069717
(lp726
S'enige'
p727
a(dp728
g14
I1
sasI-8818671644326330286
(lp729
S'dels'
p730
a(dp731
g62
I1
sasI-8844931991660242450
(lp732
S'940'
p733
a(dp734
g16
I1
sasI4814037714614610415
(lp735
S'2085'
p736
a(dp737
g4
I1
sasI163512108404620371
(lp738
S'123'
p739
a(dp740
g11
I2
sasI6347530010933584372
(lp741
S'vestsj\xc3\xa6lland'
p742
a(dp743
g34
I2
sasI957454159617828542
(lp744
S'obligationsmarked'
p745
a(dp746
g62
I2
sasI163512108409620358
(lp747
S'157'
p748
a(dp749
g9
I1
sasI7517488969992464887
(lp750
S'japanske'
p751
a(dp752
g12
I1
sasI-1829343532063043079
(lp753
S'morten'
p754
a(dp755
g14
I2
sasI-3418199821908858374
(lp756
S'etageboliger'
p757
a(dp758
g10
I1
sasI14208085359128319
(lp759
S'op'
p760
a(dp761
g12
I1
sg14
I4
sg13
I1
sg148
I2
sg20
I2
sasI1816619195893033469
(lp762
S'kurs'
p763
a(dp764
g12
I2
sg62
I2
sasI7799592877630763521
(lp765
S'helt'
p766
a(dp767
g148
I1
sg11
I1
sasI-1202842247630538238
(lp768
S'kursen'
p769
a(dp770
g20
I1
sasI4490062428848901547
(lp771
S'personaleadm'
p772
a(dp773
g16
I1
sasI4105610461966572038
(lp774
S'forventede'
p775
a(dp776
g13
I1
sasI8024821230444555009
(lp777
S'effektiviteten'
p778
a(dp779
g20
I1
sasI4692597913910178312
(lp780
S'september'
p781
a(dp782
g5
I2
sasI-11873355736423926
(lp783
S'over'
p784
a(dp785
g12
I1
sg14
I3
sg79
I1
sasI-1814460267603357173
(lp786
S'aktiviteten'
p787
a(dp788
g20
I1
sasI8276454676166720013
(lp789
S'offentlige'
p790
a(dp791
g15
I1
sasI6624904525086272015
(lp792
S'ganske'
p793
a(dp794
g34
I1
sasI7799592877630763536
(lp795
S'hele'
p796
a(dp797
g72
I1
sg117
I1
sg20
I2
sasI2705192967906228312
(lp798
S'klinisk'
p799
a(dp800
g117
I1
sasI163512108403620370
(lp801
S'131'
p802
a(dp803
g16
I1
sasI7089441704632994563
(lp804
S'superfos'
p805
a(dp806
g148
I1
sasI-4565343952441875948
(lp807
S'london'
p808
a(dp809
g13
I1
sasI-8787698409130618346
(lp810
S'samlet'
p811
a(dp812
g14
I1
sasI3461906972749738520
(lp813
S'11300'
p814
a(dp815
g12
I1
sg13
I1
sasI5541051496158104324
(lp816
S'forts\xc3\xa6tte'
p817
a(dp818
g20
I1
sasI-8595733903252385252
(lp819
S'rentepolitik'
p820
a(dp821
g11
I1
sasI3461906972749738525
(lp822
S'11305'
p823
a(dp824
g13
I1
sasI2461895972717738528
(lp825
S'12370'
p826
a(dp827
g5
I1
sasI-2835732963016601054
(lp828
S'alle'
p829
a(dp830
g14
I1
sg16
I3
sasI-2690652983484321245
(lp831
S'lyder'
p832
a(dp833
g13
I1
sg20
I2
sasI6400038450057764
(lp834
S'20'
p835
a(dp836
g9
I1
sg10
I1
sg34
I1
sg11
I1
sg12
I1
sg107
I1
sg13
I1
sg5
I1
sg14
I1
sg27
I1
sg15
I1
sg148
I1
sg317
I1
sg72
I1
sg20
I2
sg4
I1
sg62
I1
sg79
I1
sg117
I1
sasI6400038450057765
(lp837
S'21'
p838
a(dp839
g14
I1
sg27
I1
sasI6400038450057766
(lp840
S'22'
p841
a(dp842
g34
I2
sg14
I1
sasI2334080250795981351
(lp843
S'stige'
p844
a(dp845
g13
I1
sg15
I2
sasI-1925086808199474828
(lp846
S'del'
p847
a(dp848
g13
I1
sasI6400038450057772
(lp849
S'28'
p850
a(dp851
g117
I1
sasI3008991115393782318
(lp852
S'pct'
p853
a(dp854
g27
I4
sg10
I1
sg317
I2
sg20
I4
sg34
I4
sg13
I3
sg5
I2
sg14
I8
sg15
I6
sg107
I1
sg16
I1
sg62
I2
sasI-6287834126130218490
(lp855
S'kfx-indeks'
p856
a(dp857
g11
I1
sasI-7590639292707319245
(lp858
S'reuters'
p859
a(dp860
g9
I1
sg10
I1
sg11
I1
sg12
I2
sg13
I1
sg5
I1
sg14
I2
sg15
I1
sg20
I1
sg4
I1
sg16
I1
sasI-2835726962977600971
(lp861
S'avis'
p862
a(dp863
g10
I1
sasI-8913433734785942986
(lp864
S'vestsj\xc3\x86llands'
p865
a(dp866
g34
I1
sasI-3266928545692480759
(lp867
S'knudsen'
p868
a(dp869
g10
I2
sasI-1341867391091658184
(lp870
S'halv\xc3\xa5rsregnskabet'
p871
a(dp872
g34
I1
sg72
I1
sasI-4177197833197190599
(lp873
S'fik'
p874
a(dp875
g16
I1
sg9
I1
sg117
I1
sasI-8702884597640535494
(lp876
S'understreger'
p877
a(dp878
g117
I1
sasI-5911829048342463940
(lp879
S'neds\xc3\xa6ttelse'
p880
a(dp881
g13
I1
sasI8725338264315972160
(lp882
S'steget'
p883
a(dp884
g34
I2
sg14
I1
sg79
I1
sg317
I1
sasI-4387340248407113151
(lp885
S'besk\xc3\xa6ftigede'
p886
a(dp887
g15
I1
sasI-509552383506783678
(lp888
S'ftse'
p889
a(dp890
g4
I1
sasI-1925086808195474877
(lp891
S'dag'
p892
a(dp893
g62
I2
sasI4135046628016640581
(lp894
S'okt'
p895
a(dp896
g4
I1
sasI7799588877598763591
(lp897
S'halv'
p898
a(dp899
g12
I1
sasI-4140780770813142456
(lp900
S'omkostninger'
p901
a(dp902
g16
I1
sg20
I1
sasI2485039931015690827
(lp903
S'n\xc3\xa6ste'
p904
a(dp905
g16
I1
sg10
I1
sasI-7892859335986472368
(lp906
S'f\xc3\xb8rstkommende'
p907
a(dp908
g11
I1
sasI1289567620913478229
(lp909
S'020'
p910
a(dp911
g5
I1
sasI2203608940104643159
(lp912
S'milestone'
p913
a(dp914
g117
I1
sasI-1750315427681531304
(lp915
S'38600'
p916
a(dp917
g12
I1
sasI2487992135998794511
(lp918
S'-112'
p919
a(dp920
g9
I2
sasI-1925086808195474852
(lp921
S'dax'
p922
a(dp923
g4
I1
sasI-1750315427681531299
(lp924
S'38605'
p925
a(dp926
g12
I1
sasI1318948168402674270
(lp927
S'bank'
p928
a(dp929
g14
I1
sg13
I1
sg148
I1
sasI-1829328531967042977
(lp930
S'morges'
p931
a(dp932
g12
I1
sasI1736072778038508136
(lp933
S'komme'
p934
a(dp935
g14
I1
sasI-6729729146512575895
(lp936
S'u\xc3\x86ndret'
p937
a(dp938
g79
I1
sasI6032035923441732202
(lp939
S'geng\xc3\xa6ld'
p940
a(dp941
g79
I1
sg20
I1
sasI-5332814966347294101
(lp942
S'kronen'
p943
a(dp944
g12
I1
sasI2314047222216391278
(lp945
S'trak'
p946
a(dp947
g148
I1
sasI3895842273380967024
(lp948
S'\xc3\xb8konom'
p949
a(dp950
g14
I2
sasI-598665675693649293
(lp951
S'prisudviklingen'
p952
a(dp953
g14
I1
sasI-7718876479157384588
(lp954
S'829'
p955
a(dp956
g16
I1
sasI8716010769612332267
(lp957
S'renteneds\xc3\xa6ttelse'
p958
a(dp959
g11
I1
sasI7066644384574769788
(lp960
S'f\xc3\xb8rste'
p961
a(dp962
g34
I3
sg72
I1
sg16
I2
sg9
I1
sg20
I4
sasI-1840383907617881475
(lp963
S'side'
p964
a(dp965
g16
I1
sasI-11899356016424321
(lp966
S'olie'
p967
a(dp968
g4
I1
sasI420402646464677312
(lp969
S'egenkapital'
p970
a(dp971
g16
I1
sg9
I1
sasI12928077669116547
(lp972
S'en'
p973
a(dp974
g10
I1
sg34
I4
sg11
I2
sg12
I3
sg13
I8
sg148
I2
sg14
I2
sg15
I2
sg317
I1
sg20
I3
sg62
I5
sg117
I1
sasI-6592820966654526843
(lp975
S'709'
p976
a(dp977
g5
I2
sasI-7995550360821724537
(lp978
S'styrket'
p979
a(dp980
g13
I1
sasI8163342023522740873
(lp981
S'valuta'
p982
a(dp983
g12
I4
sg13
I3
sg5
I1
sasI-4320575416929527158
(lp984
S'betjene'
p985
a(dp986
g10
I1
sasI-5610691643201391988
(lp987
S'udsigt'
p988
a(dp989
g62
I1
sasI4461919972867738752
(lp990
S'10530'
p991
a(dp992
g62
I1
sasI7168043064064658
(lp993
S'88'
p994
a(dp995
g13
I1
sasI6387157653029356184
(lp996
S'mdr'
p997
a(dp998
g4
I1
sasI12928077669116569
(lp999
S'et'
p1000
a(dp1001
g10
I1
sg107
I1
sg11
I2
sg12
I1
sg9
I2
sg148
I1
sg15
I5
sg20
I11
sg72
I2
sg16
I1
sg79
I1
sg62
I1
sg117
I6
sasI-8038635934253886822
(lp1002
S'energi'
p1003
a(dp1004
g14
I1
sasI2997913656843154075
(lp1005
S'aktierne'
p1006
a(dp1007
g148
I1
sasI7168043064064668
(lp1008
S'86'
p1009
a(dp1010
g13
I1
sg9
I1
sasI6823310824088287901
(lp1011
S'kursgevinster'
p1012
a(dp1013
g79
I1
sasI7168043064064671
(lp1014
S'85'
p1015
a(dp1016
g13
I1
sasI2138728959964952096
(lp1017
S'bliver'
p1018
a(dp1019
g62
I1
sasI-6297681481976161630
(lp1020
S'forudsagt'
p1021
a(dp1022
g20
I1
sasI326605827666342565
(lp1023
S'efter\xc3\xa5ret'
p1024
a(dp1025
g11
I1
sasI-6592820966647526746
(lp1026
S'791'
p1027
a(dp1028
g16
I1
sasI-1840384907500881241
(lp1029
S'svag'
p1030
a(dp1031
g15
I2
sasI-3954113174594334071
(lp1032
S'st\xc3\xa6rk'
p1033
a(dp1034
g148
I1
sasI756880090378066601
(lp1035
S'res'
p1036
a(dp1037
g16
I4
sasI282710499796689580
(lp1038
S'kfx-rekorder'
p1039
a(dp1040
g11
I1
sasI-3931798074321706323
(lp1041
S'desuden'
p1042
a(dp1043
g10
I1
sasI7711760546124209099
(lp1044
S'dette'
p1045
a(dp1046
g117
I1
sg11
I1
sasI-141600547276074316
(lp1047
S'forskning'
p1048
a(dp1049
g9
I1
sasI5719928320698475189
(lp1050
S'danmarks'
p1051
a(dp1052
g14
I1
sg27
I1
sg107
I1
sg317
I1
sasI7040021174
(lp1053
S'7'
p1054
a(dp1055
g16
I1
sasI-6103072510372441655
(lp1056
S'rente-og'
p1057
a(dp1058
g20
I1
sasI-530514283550528737
(lp1059
S'gebyrindt\xc3\xa6gterne'
p1060
a(dp1061
g34
I1
sasI327024216817240764
(lp1062
S'bla'
p1063
a(dp1064
g10
I1
sasI7970797364840071870
(lp1065
S'adspurgte'
p1066
a(dp1067
g14
I1
sg15
I1
sasI7407174369336554179
(lp1068
S'solvens'
p1069
a(dp1070
g16
I1
sasI-7547348598889805706
(lp1071
S'driftsudgifter'
p1072
a(dp1073
g16
I1
sg20
I1
sasI-509558383520783674
(lp1074
S'frem'
p1075
a(dp1076
g15
I1
sasI1042828212848454445
(lp1077
S'driftsoverskud'
p1078
a(dp1079
g117
I1
sasI4572152417972071113
(lp1080
S'uddybende'
p1081
a(dp1082
g16
I1
sg9
I1
sasI7704383414941844639
(lp1083
S'landbrug'
p1084
a(dp1085
g15
I1
sasI4156804312292233934
(lp1086
S'b\xc3\xa5de'
p1087
a(dp1088
g14
I1
sasI6256231615282453203
(lp1089
S'afholder'
p1090
a(dp1091
g11
I1
sasI7032360498337133268
(lp1092
S'-----------------------------------------------------'
p1093
a(dp1094
g5
I2
sasI4640194801358207701
(lp1095
S'york'
p1096
a(dp1097
g5
I1
sasI-2551366031196334581
(lp1098
S'besk\xc3\xa6ftigelsesbarometer'
p1099
a(dp1100
g15
I1
sasI1920253247663958743
(lp1101
S's\xc3\xb8nderjylland'
p1102
a(dp1103
g10
I1
sasI4135046628041640666
(lp1104
S'ord'
p1105
a(dp1106
g16
I2
sg9
I1
sasI-5522881128064074471
(lp1107
S'blive'
p1108
a(dp1109
g72
I1
sg148
I1
sasI8367909510769779421
(lp1110
S'pctpoint'
p1111
a(dp1112
g11
I1
sasI-8307967113671599387
(lp1113
S'blandt'
p1114
a(dp1115
g148
I1
sasI-7555364370867764504
(lp1116
S'iss'
p1117
a(dp1118
g148
I1
sasI-8552308361222728983
(lp1119
S'udviklomk'
p1120
a(dp1121
g9
I1
sasI-2621286447013506489
(lp1122
S'uha'
p1123
a(dp1124
g10
I1
sasI2709266584596918402
(lp1125
S'alene'
p1126
a(dp1127
g34
I1
sasI8968601845112883950
(lp1128
S'3014'
p1129
a(dp1130
g9
I1
sasI-3748727815937412995
(lp1131
S'bristol-myers'
p1132
a(dp1133
g117
I2
sasI-1840386907516881211
(lp1134
S'steg'
p1135
a(dp1136
g34
I1
sg27
I4
sasI8900865530561909492
(lp1137
S'b\xc3\xb8rsintroduktionen'
p1138
a(dp1139
g10
I1
sasI1924212346778831605
(lp1140
S'forbrugerpriserne'
p1141
a(dp1142
g14
I1
sg27
I1
sasI3139174630768038648
(lp1143
S'------------------------------------------------------'
p1144
a(dp1145
g4
I2
sasI-8321008616855971078
(lp1146
S'midt'
p1147
a(dp1148
g12
I1
sasI2314038222110391035
(lp1149
S'tysk'
p1150
a(dp1151
g5
I1
sg11
I1
sasI-2167162248306652420
(lp1152
S'squibb'
p1153
a(dp1154
g117
I2
sasI744343853885214506
(lp1155
S'behandling'
p1156
a(dp1157
g117
I2
sasI2314368596792861440
(lp1158
S'nykredit'
p1159
a(dp1160
g5
I1
sasI-595950530094765311
(lp1161
S'obligationer'
p1162
a(dp1163
g79
I1
sg5
I1
sasI1037502171937198851
(lp1164
S'57565'
p1165
a(dp1166
g12
I1
sg13
I1
sasI5451583259461701568
(lp1167
S'faktorer'
p1168
a(dp1169
g11
I1
sasI1461898972852738821
(lp1170
S'13974'
p1171
a(dp1172
g16
I1
sasI1037502171937198854
(lp1173
S'57560'
p1174
a(dp1175
g12
I1
sasI558157088955550471
(lp1176
S'benyttet'
p1177
a(dp1178
g12
I1
sasI4035268540071790380
(lp1179
S'2100231'
p1180
a(dp1181
g4
I1
sasI2667551426586942220
(lp1182
S'allerede'
p1183
a(dp1184
g13
I1
sasI-3007454028802890995
(lp1185
S'omkostningerne'
p1186
a(dp1187
g20
I2
sasI8639268678049071886
(lp1188
S'kfx'
p1189
a(dp1190
g4
I2
sasI4814037714610610415
(lp1191
S'2049'
p1192
a(dp1193
g16
I1
sasI8032650381001429776
(lp1194
S'usddem'
p1195
a(dp1196
g12
I1
sg13
I1
sg5
I1
sasI3386011901535976579
(lp1197
S'fem-seks'
p1198
a(dp1199
g14
I1
sasI-1750315427686531282
(lp1200
S'38655'
p1201
a(dp1202
g13
I1
sasI-9114677511080750630
(lp1203
S'analytiker'
p1204
a(dp1205
g20
I2
sasI-369175421992790907
(lp1206
S'ser'
p1207
a(dp1208
g15
I4
sg11
I2
sasI8478190408501445408
(lp1209
S'2110641'
p1210
a(dp1211
g4
I1
sasI4814037714611610402
(lp1212
S'2053'
p1213
a(dp1214
g4
I1
sasI6387157653032356315
(lp1215
S'maj'
p1216
a(dp1217
g12
I1
sasI8639268678056071972
(lp1218
S'kom'
p1219
a(dp1220
g12
I1
sg79
I1
sasI-1847787999699268474
(lp1221
S'indsamlet'
p1222
a(dp1223
g20
I1
sasI6202719164178783015
(lp1224
S'leder'
p1225
a(dp1226
g13
I1
sasI954657433995207465
(lp1227
S'ordin\xc3\xa6re'
p1228
a(dp1229
g16
I1
sg20
I1
sasI-4106647396180071638
(lp1230
S'renten'
p1231
a(dp1232
g13
I1
sasI8272998108759741227
(lp1233
S'seniordealer'
p1234
a(dp1235
g13
I1
sasI163512108414620466
(lp1236
S'180'
p1237
a(dp1238
g9
I3
sg317
I1
sasI2334074250806981423
(lp1239
S'stort'
p1240
a(dp1241
g79
I1
sg10
I1
sasI-6492731066364515536
(lp1242
S'ikke'
p1243
a(dp1244
g14
I2
sg13
I2
sg117
I2
sg148
I1
sg20
I2
sasI2160085586638699314
(lp1245
S'repr\xc3\xa6senterer'
p1246
a(dp1247
g15
I5
sasI6400019251
(lp1248
S'2'
p1249
a(dp1250
g15
I5
sg117
I1
sasI163512108414620468
(lp1251
S'186'
p1252
a(dp1253
g9
I1
sasI-2686935947034521543
(lp1254
S'halv\xc3\xa5ret'
p1255
a(dp1256
g9
I1
sg79
I1
sg117
I1
sasI-4106647396180071626
(lp1257
S'renter'
p1258
a(dp1259
g11
I1
sasI-537253162300798998
(lp1260
S'perioden'
p1261
a(dp1262
g34
I1
sasI954657433995207480
(lp1263
S'ordin\xc3\xa6rt'
p1264
a(dp1265
g72
I1
sg16
I2
sg9
I2
sg20
I2
sasI-2154408734258511052
(lp1266
S'gennemsnittet'
p1267
a(dp1268
g20
I2
sasI6387157653032356319
(lp1269
S'man'
p1270
a(dp1271
g15
I3
sg20
I3
sasI391577549163119754
(lp1272
S'venter'
p1273
a(dp1274
g72
I1
sg15
I2
sg117
I1
sg20
I5
sasI3072785383794109246
(lp1275
S'giver'
p1276
a(dp1277
g10
I1
sasI-8681419883228622027
(lp1278
S'jeg'
p1279
a(dp1280
g62
I1
sasI1289567620917478209
(lp1281
S'060'
p1282
a(dp1283
g4
I1
sasI1483414873118138507
(lp1284
S'estimatet'
p1285
a(dp1286
g20
I1
sasI5807560019376657220
(lp1287
S'hidtil'
p1288
a(dp1289
g10
I1
sasI6113667002307255094
(lp1290
S'ledelsen'
p1291
a(dp1292
g34
I1
sg117
I1
sg20
I1
sasI7073819231910636684
(lp1293
S'attraktivt'
p1294
a(dp1295
g11
I1
sasI-2338046935136240822
(lp1296
S'juli'
p1297
a(dp1298
g27
I4
sg317
I3
sg107
I2
sg13
I1
sg14
I9
sg62
I1
sasI-5762232200968189109
(lp1299
S'offentligg\xc3\xb8relsen'
p1300
a(dp1301
g14
I1
sg13
I1
sasI2892266207579751246
(lp1302
S'\xc3\xb8gede'
p1303
a(dp1304
g34
I1
sasI-2597693527040222385
(lp1305
S'p\xc3\xa5virke'
p1306
a(dp1307
g20
I1
sasI1371838069913553744
(lp1308
S'diskontobankens'
p1309
a(dp1310
g79
I1
sasI1318961168263673656
(lp1311
S'brug'
p1312
a(dp1313
g10
I1
sasI1031133256777337684
(lp1314
S'kursreguleringer'
p1315
a(dp1316
g79
I2
sg20
I1
sasI-5478547848639579307
(lp1317
S'vurderer'
p1318
a(dp1319
g34
I1
sg14
I2
sg148
I1
sasI-962543404104237488
(lp1320
S'263'
p1321
a(dp1322
g107
I1
sasI3624223211668005722
(lp1323
S'beslutningen'
p1324
a(dp1325
g62
I1
sasI7383205176152484700
(lp1326
S'holder'
p1327
a(dp1328
g12
I1
sg20
I2
sasI-6429308858210906310
(lp1329
S'hen'
p1330
a(dp1331
g11
I1
sasI6272037681056608
(lp1332
S'11'
p1333
a(dp1334
g72
I1
sasI6272037681056609
(lp1335
S'10'
p1336
a(dp1337
g9
I1
sasI6272037681056611
(lp1338
S'12'
p1339
a(dp1340
g9
I1
sasI6272037681056612
(lp1341
S'15'
p1342
a(dp1343
g15
I1
sg317
I1
sasI6272037681056614
(lp1344
S'17'
p1345
a(dp1346
g16
I1
sg107
I1
sasI2688908445615149927
(lp1347
S'rente\xc3\xa6ndringer'
p1348
a(dp1349
g11
I1
sasI6272037681056616
(lp1350
S'19'
p1351
a(dp1352
g16
I1
sasI5061277273757954921
(lp1353
S'569944'
p1354
a(dp1355
g4
I1
sasI-3788998688650865814
(lp1356
S'byggeboom'
p1357
a(dp1358
g10
I1
sasI-6105576126252778644
(lp1359
S'nuv\xc3\xa6rende'
p1360
a(dp1361
g13
I1
sasI2461901972845738863
(lp1362
S'12575'
p1363
a(dp1364
g16
I1
sasI4814037714604610418
(lp1365
S'2026'
p1366
a(dp1367
g5
I1
sasI-6880582110906578797
(lp1368
S'rente'
p1369
a(dp1370
g34
I1
sg62
I1
sasI-225893493774249100
(lp1371
S'dominerer'
p1372
a(dp1373
g11
I1
sasI6171543021644614462
(lp1374
S'unibank-regnskab'
p1375
a(dp1376
g148
I1
sasI6276946956007377784
(lp1377
S'besk\xc3\xa6ftigelsen'
p1378
a(dp1379
g15
I9
sasI3711274123054128857
(lp1380
S'tabelform'
p1381
a(dp1382
g20
I1
sasI-2476146622519762051
(lp1383
S'minus'
p1384
a(dp1385
g117
I1
sasI2371201268051517086
(lp1386
S'transport'
p1387
a(dp1388
g15
I1
sasI5568005172932873413
(lp1389
S'02-03'
p1390
a(dp1391
g14
I1
sasI4461895972753738631
(lp1392
S'10-15'
p1393
a(dp1394
g13
I1
sasI6912041526062354
(lp1395
S'62'
p1396
a(dp1397
g16
I1
sasI2314062222111390607
(lp1398
S'tabt'
p1399
a(dp1400
g16
I2
sasI-1750315427684531311
(lp1401
S'38630'
p1402
a(dp1403
g12
I1
sg13
I2
sasI-1750315427684531306
(lp1404
S'38637'
p1405
a(dp1406
g4
I1
sasI4714243747014841239
(lp1407
S'v\xc3\xa6re'
p1408
a(dp1409
g14
I1
sg10
I1
sg20
I5
sasI7974268869267538756
(lp1410
S'v\xc3\xa6ret'
p1411
a(dp1412
g14
I1
sasI5640671125852246940
(lp1413
S'derfor'
p1414
a(dp1415
g11
I1
sasI-4950723947812814694
(lp1416
S'aktieanalytikernes'
p1417
a(dp1418
g20
I1
sasI-7641810844281410652
(lp1419
S'arbejdsmarkedsstyrelsens'
p1420
a(dp1421
g15
I1
sasI6387157653040356262
(lp1422
S'mio'
p1423
a(dp1424
g10
I1
sg20
I10
sg34
I3
sg9
I6
sg72
I3
sg16
I6
sg79
I7
sg117
I4
sasI6387157653040356264
(lp1425
S'mia'
p1426
a(dp1427
g12
I3
sasI5760017324
(lp1428
S'-'
p1429
a(dp1430
g9
I1
sg10
I3
sg34
I3
sg11
I5
sg12
I2
sg107
I2
sg13
I5
sg5
I8
sg14
I4
sg27
I2
sg15
I1
sg148
I2
sg317
I2
sg72
I1
sg20
I2
sg4
I3
sg16
I2
sg79
I1
sg62
I2
sg117
I3
sasI-6240400987092907091
(lp1431
S'aktiekursen'
p1432
a(dp1433
g20
I1
sasI-6363305565859445842
(lp1434
S'skaffe'
p1435
a(dp1436
g10
I1
sasI-6906288060849984590
(lp1437
S'neurosearch'
p1438
a(dp1439
g72
I2
sg9
I2
sg117
I3
sasI844396739524961205
(lp1440
S'ansatte'
p1441
a(dp1442
g15
I2
sasI4183656796188304313
(lp1443
S'barometeret'
p1444
a(dp1445
g15
I1
sasI-1840371907609881670
(lp1446
S'selv'
p1447
a(dp1448
g20
I1
sasI-2088598916601095237
(lp1449
S'329'
p1450
a(dp1451
g16
I1
sasI-302124506317217462
(lp1452
S'eu-metode'
p1453
a(dp1454
g27
I1
sasI6869955478025753534
(lp1455
S'elementfabrik'
p1456
a(dp1457
g10
I2
sasI1796559808175723455
(lp1458
S'd-marken'
p1459
a(dp1460
g12
I1
sg13
I1
sasI-2441053297248281662
(lp1461
S'indl\xc3\xa5n'
p1462
a(dp1463
g34
I1
sg16
I1
sasI-4204203312525968445
(lp1464
S'hovedaktion\xc3\xa6r'
p1465
a(dp1466
g10
I1
sasI-3680239120451667002
(lp1467
S'underskud'
p1468
a(dp1469
g12
I1
sg72
I1
sg9
I1
sasI5333979250036980215
(lp1470
S'siger'
p1471
a(dp1472
g10
I1
sg20
I1
sg13
I1
sg148
I1
sg14
I2
sg62
I1
sasI6483493671283350477
(lp1473
S'resultatet'
p1474
a(dp1475
g34
I1
sg72
I1
sg13
I1
sg117
I2
sg20
I1
sasI-369175422002790854
(lp1476
S'sko'
p1477
a(dp1478
g14
I1
sasI-6994879812799848162
(lp1479
S'faktiske'
p1480
a(dp1481
g317
I1
sasI2740933215872666577
(lp1482
S'derudover'
p1483
a(dp1484
g62
I1
sasI2461898972732738514
(lp1485
S'12040'
p1486
a(dp1487
g4
I1
sasI7040042295063507
(lp1488
S'74'
p1489
a(dp1490
g16
I1
sasI-1112560808614685740
(lp1491
S'selvom'
p1492
a(dp1493
g10
I1
sasI-2393790352228500521
(lp1494
S'aktiver'
p1495
a(dp1496
g16
I1
sasI-3919234817552849958
(lp1497
S'formiddag'
p1498
a(dp1499
g13
I1
sasI6484854657745996763
(lp1500
S'detailhandel'
p1501
a(dp1502
g15
I1
sasI7040042295063518
(lp1503
S'79'
p1504
a(dp1505
g79
I1
sasI3008991115489782751
(lp1506
S'p\xc3\xa5'
p1507
a(dp1508
g9
I2
sg10
I1
sg34
I1
sg11
I4
sg12
I5
sg13
I6
sg148
I4
sg14
I4
sg15
I4
sg317
I1
sg107
I1
sg20
I10
sg72
I3
sg16
I3
sg79
I3
sg62
I1
sg117
I4
sasI6784040757061228
(lp1509
S'51'
p1510
a(dp1511
g9
I1
sasI6138740959984952290
(lp1512
S'blevet'
p1513
a(dp1514
g117
I1
sasI-7718876479159384581
(lp1515
S'800'
p1516
a(dp1517
g20
I1
sasI13696082283123685
(lp1518
S'kf'
p1519
a(dp1520
g5
I1
sasI659473584135336934
(lp1521
S'1045'
p1522
a(dp1523
g27
I1
sasI6534052963110616039
(lp1524
S'\xc3\xa5bner'
p1525
a(dp1526
g62
I1
sasI6580633049230914536
(lp1527
S'samtidig'
p1528
a(dp1529
g20
I1
sasI-1840386907504881243
(lp1530
S'stik'
p1531
a(dp1532
g20
I2
sasI-1840371907602881558
(lp1533
S'seks'
p1534
a(dp1535
g34
I1
sg72
I1
sg79
I1
sg20
I1
sasI-1925086808205474835
(lp1536
S'dog'
p1537
a(dp1538
g13
I1
sg117
I1
sg11
I1
sasI13696082283123695
(lp1539
S'kl'
p1540
a(dp1541
g4
I1
sg5
I1
sasI1690252418300150768
(lp1542
S'st\xc3\xa6rkeste'
p1543
a(dp1544
g12
I1
sasI5916148575548218353
(lp1545
S'n\xc3\xb8gletallet'
p1546
a(dp1547
g13
I1
sasI5934893531611784178
(lp1548
S'mellem'
p1549
a(dp1550
g62
I1
sg13
I1
sasI4461908972732738547
(lp1551
S'10825'
p1552
a(dp1553
g12
I1
sasI-3495083546365936647
(lp1554
S'0702'
p1555
a(dp1556
g5
I1
sasI1548013330748027898
(lp1557
S'forventet'
p1558
a(dp1559
g20
I1
sasI9076522867522427899
(lp1560
S'optimistiske'
p1561
a(dp1562
g15
I2
sg20
I1
sasI1548013330748027900
(lp1563
S'forventer'
p1564
a(dp1565
g72
I1
sg15
I2
sg10
I1
sg11
I1
sasI-1925086808205474819
(lp1566
S'dow'
p1567
a(dp1568
g4
I1
sasI3008991115489782783
(lp1569
S'p\xc3\x85'
p1570
a(dp1571
g72
I1
sasI1292530147246453760
(lp1572
S'h\xc3\xa6ver'
p1573
a(dp1574
g11
I1
sasI-6943211220619760732
(lp1575
S'gentge'
p1576
a(dp1577
g117
I1
sasI-369175421992790909
(lp1578
S'set'
p1579
a(dp1580
g79
I1
sasI5580913055810698246
(lp1581
S'midtbanks'
p1582
a(dp1583
g11
I2
sasI659472584121336839
(lp1584
S'1145'
p1585
a(dp1586
g20
I1
sasI8968601845111883949
(lp1587
S'3022'
p1588
a(dp1589
g27
I1
sasI6103845751409832976
(lp1590
S'bundesbank-m\xc3\xb8der'
p1591
a(dp1592
g11
I1
sasI6840808824414293011
(lp1593
S'antallet'
p1594
a(dp1595
g107
I2
sasI7799588877604763575
(lp1596
S'haft'
p1597
a(dp1598
g34
I2
sasI2314047222210391065
(lp1599
S'tror'
p1600
a(dp1601
g62
I1
sg11
I1
sasI-7419443859293948898
(lp1602
S'konkurs-erkl\xc3\xa6ringer'
p1603
a(dp1604
g317
I1
sasI8968600845109883938
(lp1605
S'3128'
p1606
a(dp1607
g20
I1
sasI8461917972771738661
(lp1608
S'14773'
p1609
a(dp1610
g16
I1
sasI7056044359753494738
(lp1611
S'gebyrindt\xc3\xa6gter'
p1612
a(dp1613
g79
I1
sg20
I1
sasI2469456522109269035
(lp1614
S'offentligg\xc3\xb8r'
p1615
a(dp1616
g20
I1
sasI5123838684722983980
(lp1617
S'm\xc3\xa5ned'
p1618
a(dp1619
g107
I1
sasI3905098956164916402
(lp1620
S'aktieindekset'
p1621
a(dp1622
g11
I1
sasI-448651536790229970
(lp1623
S'administrationsomk'
p1624
a(dp1625
g9
I1
sasI-8321020616865971153
(lp1626
S'mens'
p1627
a(dp1628
g79
I1
sg27
I1
sg20
I2
sg15
I1
sg11
I1
sasI-4340709941616810959
(lp1629
S'543'
p1630
a(dp1631
g20
I1
sasI-6625399885895168974
(lp1632
S'fiskeri'
p1633
a(dp1634
g15
I1
sasI547676927665138741
(lp1635
S'tr\xc3\xa6ffes'
p1636
a(dp1637
g11
I1
sasI-3043528724295623625
(lp1638
S'restaurationsvirksomhed'
p1639
a(dp1640
g15
I1
sasI7168021561
(lp1641
S'8'
p1642
a(dp1643
g62
I1
sg5
I1
sasI-2334189812301371553
(lp1644
S'hens\xc3\xa6ttelser'
p1645
a(dp1646
g9
I1
sg20
I2
sasI-3913601287588694978
(lp1647
S'pengem\xc3\xa6ngdev\xc3\xa6kst'
p1648
a(dp1649
g13
I1
sasI-3834380217518586699
(lp1650
S'sn\xc3\xa6vert'
p1651
a(dp1652
g62
I1
sasI4142647774579849527
(lp1653
S'p\xc3\xa6n'
p1654
a(dp1655
g11
I1
sasI3970554451437790275
(lp1656
S'meget'
p1657
a(dp1658
g14
I1
sg13
I1
sg148
I2
sg11
I2
sasI8097998910737259588
(lp1659
S'\xc3\x85rsagen'
p1660
a(dp1661
g14
I1
sasI4428393793529349985
(lp1662
S'enslydende'
p1663
a(dp1664
g14
I1
sasI12800076900115531
(lp1665
S'de'
p1666
a(dp1667
g117
I1
sg11
I7
sg20
I3
sg34
I1
sg13
I2
sg14
I2
sg15
I6
sg72
I1
sg62
I1
sasI-8844931991673242548
(lp1668
S'999'
p1669
a(dp1670
g4
I1
sasI6351576333559757901
(lp1671
S'indregnet'
p1672
a(dp1673
g13
I1
sasI-5741754298369876914
(lp1674
S'n\xc3\xa6sten'
p1675
a(dp1676
g14
I1
sg13
I1
sasI-5295133302192069553
(lp1677
S'risiko'
p1678
a(dp1679
g13
I1
sasI-668352710339308464
(lp1680
S'peger'
p1681
a(dp1682
g20
I1
sg11
I1
sasI212137016471219283
(lp1683
S'n\xc3\xb8gletal'
p1684
a(dp1685
g4
I1
sg5
I1
sasI163512108404620373
(lp1686
S'125'
p1687
a(dp1688
g9
I2
sg11
I1
sasI-6734997527808342954
(lp1689
S'dansk'
p1690
a(dp1691
g15
I1
sg5
I1
sasI7506375518053762137
(lp1692
S'99-25'
p1693
a(dp1694
g5
I1
sasI6873018965583918171
(lp1695
S'finans'
p1696
a(dp1697
g14
I1
sg20
I1
sg11
I1
sasI12800076900115549
(lp1698
S'ds'
p1699
a(dp1700
g27
I1
sg107
I1
sg317
I1
sasI-968196845344256928
(lp1701
S'pr\xc3\x86get'
p1702
a(dp1703
g117
I1
sasI-8442977061266113437
(lp1704
S'nettooms\xc3\xa6tning'
p1705
a(dp1706
g9
I2
sasI3500604045339663740
(lp1707
S'aktivitet'
p1708
a(dp1709
g34
I1
sasI-2262825282541251055
(lp1710
S'forventning'
p1711
a(dp1712
g15
I1
sg20
I1
sasI-1840379907754881860
(lp1713
S'sm\xc3\xa5'
p1714
a(dp1715
g20
I1
sasI-4704083373116570518
(lp1716
S'repo-renten'
p1717
a(dp1718
g13
I1
sasI6272037681056615
(lp1719
S'16'
p1720
a(dp1721
g15
I1
sasI-8341279204257072907
(lp1722
S'jern-og'
p1723
a(dp1724
g15
I1
sasI-7422055482615593872
(lp1725
S'tilbagefald'
p1726
a(dp1727
g11
I1
sasI-3214654429106953103
(lp1728
S'415'
p1729
a(dp1730
g16
I1
sasI-6680124119699665805
(lp1731
S'undertone'
p1732
a(dp1733
g148
I1
sasI5169704764242779252
(lp1734
S'd-mark'
p1735
a(dp1736
g12
I2
sg13
I1
sasI5052869071771386997
(lp1737
S'fokus'
p1738
a(dp1739
g11
I1
sasI-2456171310078038921
(lp1740
S'netto'
p1741
a(dp1742
g34
I1
sg16
I2
sg9
I2
sg20
I1
sasI-7178748988435843975
(lp1743
S'h\xc3\xa6ve'
p1744
a(dp1745
g11
I1
sasI7680216714176063679
(lp1746
S'medf\xc3\xb8rt'
p1747
a(dp1748
g34
I1
sasI735291230160788605
(lp1749
S'\xc3\xb8ge'
p1750
a(dp1751
g13
I1
sg10
I1
sg20
I1
sasI4832838536456875135
(lp1752
S'\xc3\xa5rs-og'
p1753
a(dp1754
g117
I2
sasI-5112743823713571712
(lp1755
S'satte'
p1756
a(dp1757
g12
I1
sasI1318951168283673731
(lp1758
S'blev'
p1759
a(dp1760
g12
I1
sg72
I2
sg117
I2
sg317
I1
sg20
I1
sasI-369175421992790908
(lp1761
S'ses'
p1762
a(dp1763
g14
I1
sg9
I1
sasI-2054023477197077371
(lp1764
S'fondsb\xc3\xb8rsen'
p1765
a(dp1766
g10
I1
sg117
I1
sasI-2511819542390768506
(lp1767
S'merita'
p1768
a(dp1769
g13
I1
sasI-369175421992790905
(lp1770
S'sep'
p1771
a(dp1772
g4
I2
sasI7237436555011562633
(lp1773
S'priser'
p1774
a(dp1775
g13
I1
sasI-6933766430962473846
(lp1776
S'kvartal'
p1777
a(dp1778
g13
I1
sg15
I9
sg117
I1
sasI391577549163119755
(lp1779
S'ventes'
p1780
a(dp1781
g15
I3
sg148
I1
sg20
I2
sasI391577549163119756
(lp1782
S'ventet'
p1783
a(dp1784
g12
I1
sg117
I1
sasI5071151093178958990
(lp1785
S'bygger'
p1786
a(dp1787
g15
I1
sasI3812367618131612030
(lp1788
S'forbrugerprisindekset'
p1789
a(dp1790
g14
I1
sg27
I1
sasI6183282252408319121
(lp1791
S'syddanske'
p1792
a(dp1793
g10
I1
sasI7970583451381789842
(lp1794
S'matif'
p1795
a(dp1796
g5
I1
sasI2354025562979703959
(lp1797
S'trods'
p1798
a(dp1799
g79
I1
sg148
I1
sasI1289567620914478232
(lp1800
S'032'
p1801
a(dp1802
g4
I1
sasI1818892560288750745
(lp1803
S'stigende'
p1804
a(dp1805
g34
I2
sg14
I1
sg15
I1
sg317
I1
sg20
I1
sasI1289567620914478234
(lp1806
S'030'
p1807
a(dp1808
g4
I1
sasI6512160733570258075
(lp1809
S'produktionskapaciteten'
p1810
a(dp1811
g10
I1
sasI1289567620914478238
(lp1812
S'034'
p1813
a(dp1814
g5
I1
sasI1289567620914478239
(lp1815
S'035'
p1816
a(dp1817
g4
I1
sasI6144036912055456
(lp1818
S'02'
p1819
a(dp1820
g9
I1
sasI6144036912055457
(lp1821
S'03'
p1822
a(dp1823
g14
I2
sasI6144036912055458
(lp1824
S'00'
p1825
a(dp1826
g16
I2
sg9
I1
sasI4741423286699505179
(lp1827
S'erhvervsbyggeri'
p1828
a(dp1829
g10
I1
sasI6144036912055462
(lp1830
S'04'
p1831
a(dp1832
g14
I1
sasI6144036912055463
(lp1833
S'05'
p1834
a(dp1835
g14
I1
sasI2319282404219389097
(lp1836
S'europ\xc3\xa6iske'
p1837
a(dp1838
g13
I1
sasI3841824847582858411
(lp1839
S'udenlandske'
p1840
a(dp1841
g20
I1
sasI1816614196004033712
(lp1842
S'knap'
p1843
a(dp1844
g34
I1
sasI6528019634
(lp1845
S'3'
p1846
a(dp1847
g4
I1
sg15
I4
sg117
I1
sasI3871906315610574005
(lp1848
S'halv\xc3\xa5rsregnskab'
p1849
a(dp1850
g20
I2
sasI1966453961508984661
(lp1851
S'posten'
p1852
a(dp1853
g79
I2
sg20
I2
sasI4629913807590804663
(lp1854
S'eftermiddag'
p1855
a(dp1856
g12
I1
sg13
I1
sg20
I1
sasI8612538313697578168
(lp1857
S'landets'
p1858
a(dp1859
g20
I1
sasI8024253939524934844
(lp1860
S'pengeinstitut'
p1861
a(dp1862
g20
I1
sasI-5461418170037416771
(lp1863
S'fomc-m\xc3\xb8de'
p1864
a(dp1865
g13
I1
sasI-8044830942528170816
(lp1866
S'opgjort'
p1867
a(dp1868
g107
I1
sasI-6245383510931965408
(lp1869
S'forbereder'
p1870
a(dp1871
g10
I1
sasI2568933799201051844
(lp1872
S'europa'
p1873
a(dp1874
g12
I1
sg13
I1
sasI5416918726010227909
(lp1875
S'august'
p1876
a(dp1877
g9
I1
sg10
I1
sg34
I1
sg11
I1
sg12
I1
sg107
I1
sg13
I1
sg5
I1
sg14
I1
sg27
I1
sg15
I1
sg148
I1
sg317
I1
sg72
I1
sg20
I1
sg4
I1
sg16
I1
sg79
I1
sg62
I1
sg117
I1
sasI8853071442699257031
(lp1878
S'videre'
p1879
a(dp1880
g148
I1
sasI5522754172230866120
(lp1881
S'sidste'
p1882
a(dp1883
g15
I1
sg20
I4
sasI456347785925995721
(lp1884
S'modreaktioner'
p1885
a(dp1886
g11
I1
sasI-6592820966652526729
(lp1887
S'721'
p1888
a(dp1889
g62
I1
sasI6400038450057762
(lp1890
S'26'
p1891
a(dp1892
g27
I1
sasI-5272558010027000626
(lp1893
S'\xc3\xa5rsregnskab'
p1894
a(dp1895
g20
I1
sasI-744787572814836526
(lp1896
S'amerikanske'
p1897
a(dp1898
g12
I3
sg62
I1
sg11
I2
sasI-4664246514773058348
(lp1899
S'ende'
p1900
a(dp1901
g13
I1
sasI4461919972860738773
(lp1902
S'10540'
p1903
a(dp1904
g62
I1
sg5
I1
sasI6530069579532177273
(lp1905
S'oplyser'
p1906
a(dp1907
g27
I1
sg317
I1
sg107
I1
sg9
I1
sg16
I1
sg117
I1
sasI-1017779562341268261
(lp1908
S'benchmarken'
p1909
a(dp1910
g62
I2
sasI-5795846724951624483
(lp1911
S'produkter'
p1912
a(dp1913
g10
I1
sasI-3503303170152199880
(lp1914
S'omkostningsfald'
p1915
a(dp1916
g20
I1
sasI12672038114
(lp1917
S'c'
p1918
a(dp1919
g9
I1
sg10
I1
sg11
I1
sg12
I1
sg13
I1
sg5
I1
sg14
I1
sg15
I1
sg4
I1
sg16
I1
sasI6726747653139845670
(lp1920
S'96-res'
p1921
a(dp1922
g72
I1
sasI7970577451356789994
(lp1923
S'marts'
p1924
a(dp1925
g10
I1
sasI3052860071658386667
(lp1926
S'finde'
p1927
a(dp1928
g10
I1
sasI223865432314066
(lp1929
S'formoder'
p1930
a(dp1931
g11
I1
sasI-1750315427687531282
(lp1932
S'38660'
p1933
a(dp1934
g5
I1
sasI6709293584467918065
(lp1935
S'april'
p1936
a(dp1937
g10
I1
sasI-438752184774712077
(lp1938
S'kommer'
p1939
a(dp1940
g117
I1
sasI1779847944438336757
(lp1941
S'\xc3\xa5r'
p1942
a(dp1943
g10
I1
sg20
I6
sg11
I1
sg14
I1
sg15
I3
sg79
I1
sasI8135069520671051000
(lp1944
S'indt\xc3\xa6gter'
p1945
a(dp1946
g16
I1
sasI-2621286447019506439
(lp1947
S'uni'
p1948
a(dp1949
g20
I1
sasI2108888627871063291
(lp1950
S'beslutningerne'
p1951
a(dp1952
g11
I1
sasI3461905972736738559
(lp1953
S'11295'
p1954
a(dp1955
g12
I1
sasI756880090365066501
(lp1956
S'rpt'
p1957
a(dp1958
g14
I1
sg20
I1
sasI-5112766823844571898
(lp1959
S'samme'
p1960
a(dp1961
g72
I1
sg117
I1
sg11
I1
sasI-6395555097695446150
(lp1962
S'konkurrence'
p1963
a(dp1964
g34
I1
sasI12672076131114250
(lp1965
S'ca'
p1966
a(dp1967
g79
I1
sg15
I1
sasI5640664125686246615
(lp1968
S'dermed'
p1969
a(dp1970
g14
I1
sasI-3549468957370850035
(lp1971
S'afgivet'
p1972
a(dp1973
g14
I1
sasI149723271783935247
(lp1974
S'rentegennemsnit'
p1975
a(dp1976
g5
I1
sasI-2997753427797029616
(lp1977
S'introduktion'
p1978
a(dp1979
g10
I1
sasI3151574970536291601
(lp1980
S'fransk'
p1981
a(dp1982
g5
I1
sasI-7127343541729471214
(lp1983
S's\xc3\xa5ledes'
p1984
a(dp1985
g13
I1
sg117
I1
sg11
I1
sasI5559905233823489923
(lp1986
S'periode'
p1987
a(dp1988
g72
I1
sg20
I4
sasI4667734158458051860
(lp1989
S'-02'
p1990
a(dp1991
g16
I1
sasI-1739361069994894802
(lp1992
S'tirsdagens'
p1993
a(dp1994
g13
I1
sasI4667734158458051863
(lp1995
S'-01'
p1996
a(dp1997
g16
I1
sasI-3159370328793883367
(lp1998
S'havde'
p1999
a(dp2000
g14
I1
sg13
I1
sasI-4952530863183734082
(lp2001
S'aktiehandler'
p2002
a(dp2003
g148
I1
sasI709265584453917985
(lp2004
S'antal'
p2005
a(dp2006
g107
I1
sg317
I2
sasI-4177197833224190686
(lp2007
S'fra'
p2008
a(dp2009
g117
I1
sg34
I1
sg11
I2
sg12
I3
sg13
I1
sg148
I1
sg14
I5
sg15
I3
sg20
I2
sg62
I1
sg79
I2
sasI-6900471212739815546
(lp2010
S'\xc3\xb8konomerne'
p2011
a(dp2012
g14
I1
sasI-1092772511459848921
(lp2013
S'tabel'
p2014
a(dp2015
g16
I1
sasI7333972249942979880
(lp2016
S'skrev'
p2017
a(dp2018
g20
I1
sasI-1840381907612881623
(lp2019
S'sket'
p2020
a(dp2021
g14
I1
sasI-5670297278240006870
(lp2022
S'fondsvaluta'
p2023
a(dp2024
g16
I1
sasI-3970544378671876558
(lp2025
S'valutadealers'
p2026
a(dp2027
g13
I1
sasI-8321016616861971153
(lp2028
S'mark'
p2029
a(dp2030
g12
I1
sasI-5984686100259812045
(lp2031
S'18753'
p2032
a(dp2033
g16
I1
sasI4590397873041642805
(lp2034
S'forrige'
p2035
a(dp2036
g4
I1
sg107
I1
sg5
I1
sasI-6492719066370515655
(lp2037
S'igen'
p2038
a(dp2039
g13
I1
sasI1217356416906952612
(lp2040
S'\xc3\xa5ret'
p2041
a(dp2042
g79
I1
sg117
I1
sasI4814036714626610492
(lp2043
S'2363'
p2044
a(dp2045
g16
I1
sasI5657855057681716542
(lp2046
S'marginalt'
p2047
a(dp2048
g62
I1
sasI7664966069382444354
(lp2049
S's\xc3\xa6son'
p2050
a(dp2051
g107
I1
sg317
I1
sasI-6038594934064886461
(lp2052
S'enkelt'
p2053
a(dp2054
g14
I1
sg20
I1
sasI6736245778820508996
(lp2055
S'krone'
p2056
a(dp2057
g12
I1
sasI6202887568624756037
(lp2058
S'kundgjorte'
p2059
a(dp2060
g107
I1
sasI1037502171938198854
(lp2061
S'57555'
p2062
a(dp2063
g13
I1
sasI-6190032487097023160
(lp2064
S'hvilket'
p2065
a(dp2066
g79
I1
sasI-5303253345840048823
(lp2067
S'gav'
p2068
a(dp2069
g12
I1
sasI-8552310361253729042
(lp2070
S'udvikling'
p2071
a(dp2072
g34
I1
sg14
I1
sg117
I2
sasI3865202287782737236
(lp2073
S'gennemsnit'
p2074
a(dp2075
g20
I3
sasI7799577877467763257
(lp2076
S'hvor'
p2077
a(dp2078
g11
I1
sasI6731580857510930319
(lp2079
S'efter'
p2080
a(dp2081
g12
I3
sg27
I1
sg13
I2
sg9
I2
sg11
I1
sasI-5943513400869431972
(lp2082
S'pris-tallene'
p2083
a(dp2084
g14
I1
sasI-8813487300357165731
(lp2085
S'afd\xc3\xa6mpet'
p2086
a(dp2087
g13
I1
sasI-3978511386845852321
(lp2088
S'skriver'
p2089
a(dp2090
g34
I1
sg10
I1
sg11
I3
sasI-5721360809225579168
(lp2091
S'stadig'
p2092
a(dp2093
g13
I1
sg10
I1
sasI5971135326310307169
(lp2094
S'l\xc3\xb8b'
p2095
a(dp2096
g13
I1
sasI-4850272729645760965
(lp2097
S'finansieringsvirksomhed'
p2098
a(dp2099
g15
I1
sasI-369175422004790873
(lp2100
S'sit'
p2101
a(dp2102
g20
I2
sasI-1840399907646881420
(lp2103
S'syge'
p2104
a(dp2105
g117
I1
sasI5971135326310307175
(lp2106
S'l\xc3\xb8d'
p2107
a(dp2108
g12
I1
sasI-2771880282270263960
(lp2109
S'projekt'
p2110
a(dp2111
g117
I1
sasI659477584118336884
(lp2112
S'1450'
p2113
a(dp2114
g20
I1
sasI659476584118336889
(lp2115
S'1514'
p2116
a(dp2117
g12
I1
sasI-2150547386386328198
(lp2118
S'anonym'
p2119
a(dp2120
g20
I1
sasI6898553661111256443
(lp2121
S'balance'
p2122
a(dp2123
g16
I1
sg9
I1
sasI-5020365471179154785
(lp2124
S'tr\xc3\xa6kke'
p2125
a(dp2126
g20
I1
sasI1753327147683458429
(lp2127
S'besk\xc3\xa6ftigelse'
p2128
a(dp2129
g15
I2
sasI3842265840336278910
(lp2130
S'valutaen'
p2131
a(dp2132
g12
I1
sasI3970561451353789824
(lp2133
S'mener'
p2134
a(dp2135
g14
I2
sasI-7391520022622661247
(lp2136
S'prim\xc3\xa6rt'
p2137
a(dp2138
g34
I1
sg14
I2
sg10
I1
sasI-5416893116765549333
(lp2139
S'm\xc3\xa5neder'
p2140
a(dp2141
g34
I1
sg72
I1
sg20
I1
sg11
I3
sasI15104090742136201
(lp2142
S'vi'
p2143
a(dp2144
g11
I2
sasI5605992811038825665
(lp2145
S'kapitalinteresser'
p2146
a(dp2147
g16
I1
sasI4452614484872844687
(lp2148
S'opg\xc3\xb8relsen'
p2149
a(dp2150
g15
I1
sasI2046740907115423120
(lp2151
S'indeks'
p2152
a(dp2153
g27
I3
sasI-74217742979637867
(lp2154
S'holdning'
p2155
a(dp2156
g13
I1
sasI7506375518050762134
(lp2157
S'99-13'
p2158
a(dp2159
g5
I1
sasI1396091820334224792
(lp2160
S'koncernen'
p2161
a(dp2162
g16
I3
sg9
I3
sg20
I1
sasI4020244965416281499
(lp2163
S'dumpet'
p2164
a(dp2165
g12
I1
sasI4461919972866738757
(lp2166
S'10522'
p2167
a(dp2168
g5
I1
sasI-4947165928153612896
(lp2169
S'faldt'
p2170
a(dp2171
g12
I1
sasI-8787699409270618719
(lp2172
S'sammen'
p2173
a(dp2174
g117
I1
sasI-4088067782526509659
(lp2175
S'regnskaberne'
p2176
a(dp2177
g11
I1
sasI8461928972786738600
(lp2178
S'14880'
p2179
a(dp2180
g13
I1
sg5
I1
sasI-103739793992133732
(lp2181
S'stigningen'
p2182
a(dp2183
g34
I1
sasI5971037325612305834
(lp2184
S'lave'
p2185
a(dp2186
g13
I1
sasI-2997541519502578261
(lp2187
S'9817'
p2188
a(dp2189
g5
I1
sasI163512108405620375
(lp2190
S'112'
p2191
a(dp2192
g9
I1
sg117
I1
sasI7322141446277023150
(lp2193
S'm3-pengem\xc3\xa6ngden'
p2194
a(dp2195
g13
I1
sasI-6587875886705928784
(lp2196
S'sv\xc3\xa6rt'
p2197
a(dp2198
g12
I1
sasI-4947165928153612879
(lp2199
S'falde'
p2200
a(dp2201
g14
I1
sg20
I1
sasI-6898895145309411918
(lp2202
S'tr\xc3\xa6kker'
p2203
a(dp2204
g14
I2
sasI2843196896139601822
(lp2205
S'grafisk'
p2206
a(dp2207
g15
I2
sasI7296021944
(lp2208
S'9'
p2209
a(dp2210
g16
I1
sasI5336068719266745785
(lp2211
S'sparekassens'
p2212
a(dp2213
g34
I2
sasI-2224497385624631878
(lp2214
S'omkring'
p2215
a(dp2216
g12
I1
sg14
I1
sg13
I1
sasI-11875355731423812
(lp2217
S'otte'
p2218
a(dp2219
g34
I1
sg14
I2
sg79
I1
sasI7799577877465763262
(lp2220
S'hvis'
p2221
a(dp2222
g20
I4
sasI-1840375907640881729
(lp2223
S'samt'
p2224
a(dp2225
g15
I2
sasI-1843848313063647808
(lp2226
S'repo-neds\xc3\xa6ttelse'
p2227
a(dp2228
g13
I1
sasI-7876150202768101947
(lp2229
S'konkurser'
p2230
a(dp2231
g317
I1
sasI3924939300762844615
(lp2232
S'pr\xc3\xa6ges'
p2233
a(dp2234
g11
I1
sasI8461927972772738505
(lp2235
S'14900'
p2236
a(dp2237
g12
I1
sg13
I1
sasI8461927972772738508
(lp2238
S'14905'
p2239
a(dp2240
g12
I1
sasI2338125538948996597
(lp2241
S'hovedparten'
p2242
a(dp2243
g11
I1
sasI1289567620911478224
(lp2244
S'003'
p2245
a(dp2246
g5
I1
sasI1289567620911478227
(lp2247
S'000'
p2248
a(dp2249
g5
I1
sasI-369175422020790827
(lp2250
S'syv'
p2251
a(dp2252
g79
I1
sg20
I2
sasI3970568451448790265
(lp2253
S'meiji'
p2254
a(dp2255
g117
I1
sasI6253311391986715556
(lp2256
S'priserne'
p2257
a(dp2258
g14
I3
sasI-5707611250708048635
(lp2259
S'selskabet'
p2260
a(dp2261
g117
I1
sasI1289567620911478235
(lp2262
S'008'
p2263
a(dp2264
g5
I1
sasI-7364700842844518947
(lp2265
S'prognose'
p2266
a(dp2267
g12
I1
sasI-3878255219637623327
(lp2268
S'projektsamarbejdet'
p2269
a(dp2270
g117
I1
sasI2942891284194057699
(lp2271
S'udl\xc3\xa5n'
p2272
a(dp2273
g34
I2
sg16
I1
sasI-5038552228754357540
(lp2274
S'obligationschef'
p2275
a(dp2276
g62
I1
sasI2590357872725642150
(lp2277
S'fortsat'
p2278
a(dp2279
g34
I1
sg11
I1
sasI13440040424
(lp2280
S'i'
p2281
a(dp2282
g9
I3
sg10
I4
sg34
I8
sg11
I9
sg12
I10
sg13
I10
sg148
I2
sg14
I14
sg27
I3
sg15
I17
sg317
I4
sg107
I3
sg20
I23
sg72
I3
sg16
I5
sg79
I4
sg62
I3
sg117
I9
sasI8819072560985751463
(lp2283
S'stigning'
p2284
a(dp2285
g34
I1
sg15
I2
sg317
I1
sg20
I1
sasI60190112214466029
(lp2286
S'n\xc3\xa6stst\xc3\xb8rste'
p2287
a(dp2288
g20
I1
sasI3489142416599569904
(lp2289
S'kommende'
p2290
a(dp2291
g20
I1
sg11
I2
sasI3865783077772686834
(lp2292
S'sluttede'
p2293
a(dp2294
g148
I1
sg11
I1
sasI2494870118930050548
(lp2295
S'l\xc3\xa6gge'
p2296
a(dp2297
g148
I1
sasI3461916972871738869
(lp2298
S'11961'
p2299
a(dp2300
g4
I1
sasI-3159392328811883016
(lp2301
S'halvt'
p2302
a(dp2303
g11
I1
sasI8413774635557621241
(lp2304
S'f\xc3\xb8lgende'
p2305
a(dp2306
g9
I1
sasI-1465329860154454533
(lp2307
S'erhvervsbladet'
p2308
a(dp2309
g10
I2
sasI-5418574437231325611
(lp2310
S'udviklingen'
p2311
a(dp2312
g14
I1
sg15
I1
sg11
I1
sasI-6119970070047271424
(lp2313
S'leveret'
p2314
a(dp2315
g10
I1
sasI-3117331901690364412
(lp2316
S'tallet'
p2317
a(dp2318
g13
I1
sasI-7125508497085938169
(lp2319
S'yen'
p2320
a(dp2321
g12
I1
sasI7711754545887208364
(lp2322
S'deres'
p2323
a(dp2324
g14
I2
sg11
I1
sasI-2873336851310053877
(lp2325
S'bundesbankm\xc3\xb8de'
p2326
a(dp2327
g13
I1
sasI-8454711829510910452
(lp2328
S'personale'
p2329
a(dp2330
g20
I1
sasI3644900746347488782
(lp2331
S'godt'
p2332
a(dp2333
g20
I1
sasI713958540896305752
(lp2334
S'afskrivninger'
p2335
a(dp2336
g16
I1
sg20
I1
sasI-4756961701854616046
(lp2337
S'forklaringen'
p2338
a(dp2339
g13
I1
sasI4440211343755482643
(lp2340
S'finansielle'
p2341
a(dp2342
g16
I2
sg11
I1
sasI-1840381907608881643
(lp2343
S'skat'
p2344
a(dp2345
g72
I1
sg16
I5
sg9
I4
sg79
I1
sg20
I1
sasI650188420398812694
(lp2346
S'stemningen'
p2347
a(dp2348
g148
I1
sasI8521858207435247131
(lp2349
S'handelsbalance'
p2350
a(dp2351
g12
I1
sasI5847666571783933469
(lp2352
S'summen'
p2353
a(dp2354
g20
I1
sasI508007231083318814
(lp2355
S'valutamarkedet'
p2356
a(dp2357
g13
I1
sasI1722994014701163781
(lp2358
S'interessante'
p2359
a(dp2360
g20
I1
sasI1461895972832738848
(lp2361
S'13636'
p2362
a(dp2363
g16
I1
sasI-1464975737083216347
(lp2364
S'rekordniveau'
p2365
a(dp2366
g148
I1
sasI-6429308858214906330
(lp2367
S'han'
p2368
a(dp2369
g148
I1
sg20
I1
sasI5201909158090718759
(lp2370
S'tilbage'
p2371
a(dp2372
g12
I1
sasI-369175422154791384
(lp2373
S's\xc3\xa5'
p2374
a(dp2375
g13
I1
sg148
I1
sg20
I3
sasI5523797796686985820
(lp2376
S'investor'
p2377
a(dp2378
g20
I1
sasI7189352703533579818
(lp2379
S'centralbank'
p2380
a(dp2381
g62
I1
sg11
I2
sasI-469736823019147728
(lp2382
S'samarbejde'
p2383
a(dp2384
g117
I1
sasI2363909634899250737
(lp2385
S'mulighed'
p2386
a(dp2387
g10
I1
sasI-5836619941112834510
(lp2388
S'mandag'
p2389
a(dp2390
g13
I2
sg148
I2
sg11
I1
sasI8076045845044264500
(lp2391
S'resultat'
p2392
a(dp2393
g16
I4
sg9
I5
sg79
I1
sg20
I7
sasI6656020021
(lp2394
S'4'
p2395
a(dp2396
g13
I1
sasI202684936866522678
(lp2397
S'tilsvarende'
p2398
a(dp2399
g14
I1
sg20
I4
sasI1098913924417936953
(lp2400
S'p\xc3\xa6ne'
p2401
a(dp2402
g11
I1
sasI-6429308858214906310
(lp2403
S'har'
p2404
a(dp2405
g117
I1
sg34
I3
sg20
I2
sg12
I4
sg13
I2
sg14
I1
sg10
I3
sasI6582700878867197535
(lp2406
S'kommentar'
p2407
a(dp2408
g34
I1
sg13
I1
sasI673990446381325884
(lp2409
S'transportvirksomhed'
p2410
a(dp2411
g15
I1
sasI6873015965690918463
(lp2412
S'findes'
p2413
a(dp2414
g15
I1
sasI243142585266912833
(lp2415
S'jesper'
p2416
a(dp2417
g14
I1
sasI8546043442994349634
(lp2418
S'tilfredsstillende'
p2419
a(dp2420
g34
I1
sasI4525885907397488197
(lp2421
S'nielsen'
p2422
a(dp2423
g14
I1
sasI-509531383377783480
(lp2424
S'fire'
p2425
a(dp2426
g79
I1
sasI-1879498091948712373
(lp2427
S'erhvervsliv'
p2428
a(dp2429
g15
I1
sasI-2646637327832700476
(lp2430
S'halv\xc3\xa5r'
p2431
a(dp2432
g117
I3
sg11
I1
sg20
I3
sg34
I2
sg9
I1
sg16
I2
sg79
I1
sasI2958533492800208421
(lp2433
S'udgifterne'
p2434
a(dp2435
g20
I1
sasI34812308140535374
(lp2436
S'viser'
p2437
a(dp2438
g15
I1
sg20
I4
sasI8968593845097883917
(lp2439
S'3800'
p2440
a(dp2441
g15
I1
sasI-7919447409555218864
(lp2442
S'eftermiddagen'
p2443
a(dp2444
g12
I1
sasI-7965214691806464429
(lp2445
S'vande'
p2446
a(dp2447
g148
I1
sasI3056503204874266894
(lp2448
S'marked'
p2449
a(dp2450
g10
I3
sasI6784040757061220
(lp2451
S'59'
p2452
a(dp2453
g9
I1
sasI1453079729201098330
(lp2454
S'ams'
p2455
a(dp2456
g15
I1
sasI4980144637988535567
(lp2457
S'unibank'
p2458
a(dp2459
g14
I2
sg148
I1
sg20
I3
sasI3869658190816257629
(lp2460
S'l\xc3\xa6gemiddel'
p2461
a(dp2462
g117
I2
sasI-1663334454357326242
(lp2463
S'm\xc3\xb8derne'
p2464
a(dp2465
g11
I1
sasI6387157653034356319
(lp2466
S'mod'
p2467
a(dp2468
g117
I1
sg20
I2
sg12
I2
sg9
I1
sg72
I1
sg16
I1
sasI6912041526062352
(lp2469
S'60'
p2470
a(dp2471
g16
I1
sg9
I1
sasI8956584205277181538
(lp2472
S'samlede'
p2473
a(dp2474
g20
I1
sasI6788073685128504932
(lp2475
S'\xc3\xa5rsagen'
p2476
a(dp2477
g13
I1
sasI6736392876918180165
(lp2478
S'opn\xc3\xa5et'
p2479
a(dp2480
g79
I1
sasI6784040757061224
(lp2481
S'55'
p2482
a(dp2483
g15
I1
sasI1965891438359991916
(lp2484
S'vundet'
p2485
a(dp2486
g12
I1
sasI6784040757061229
(lp2487
S'50'
p2488
a(dp2489
g10
I1
sasI-3816755453817598354
(lp2490
S'faldet'
p2491
a(dp2492
g14
I1
sg79
I2
sasI6784040757061231
(lp2493
S'52'
p2494
a(dp2495
g15
I1
sasI6943052302705366641
(lp2496
S'debitorer'
p2497
a(dp2498
g16
I2
sg20
I1
sasI-4340709941615810958
(lp2499
S'535'
p2500
a(dp2501
g9
I1
sasI-3051142320834333069
(lp2502
S'een'
p2503
a(dp2504
g117
I1
sasI-976395230168805770
(lp2505
S'\xc3\xa5rsstigning'
p2506
a(dp2507
g14
I1
sasI-692128996851274117
(lp2508
S'kfx-indekset'
p2509
a(dp2510
g4
I1
sg148
I1
sg11
I2
sasI887432191248313914
(lp2511
S'senere'
p2512
a(dp2513
g148
I1
sasI6912041526062357
(lp2514
S'65'
p2515
a(dp2516
g16
I1
sasI-2338046935134240832
(lp2517
S'juni'
p2518
a(dp2519
g12
I3
sg14
I3
sg117
I1
sg317
I1
sasI6486082455066516937
(lp2520
S'sparekassen'
p2521
a(dp2522
g34
I3
sasI7736119778221508232
(lp2523
S'kunne'
p2524
a(dp2525
g13
I1
sasI-7070075562484896119
(lp2526
S'nikkei'
p2527
a(dp2528
g4
I1
sasI-104471994225457526
(lp2529
S'st\xc3\xb8rre'
p2530
a(dp2531
g11
I1
sasI-6103135510725442281
(lp2532
S'renterne'
p2533
a(dp2534
g11
I1
sasI4440844465671751308
(lp2535
S'f\xc3\xb8rst'
p2536
a(dp2537
g12
I1
sg117
I1
sasI-1112721823673571697
(lp2538
S'sendt'
p2539
a(dp2540
g12
I1
sasI954625433739206936
(lp2541
S'ordin\xc3\x86rt'
p2542
a(dp2543
g9
I1
sasI-3848608851053117806
(lp2544
S'aktier'
p2545
a(dp2546
g4
I1
sg79
I1
sg148
I1
sasI-509637384103784809
(lp2547
S'f\xc3\x98r'
p2548
a(dp2549
g16
I1
sg9
I1
sasI8032650380999429784
(lp2550
S'usddkk'
p2551
a(dp2552
g12
I1
sg13
I1
sasI-668365710483308901
(lp2553
S'peter'
p2554
a(dp2555
g13
I1
sasI-3283279184367208803
(lp2556
S'registreret'
p2557
a(dp2558
g317
I1
sasI-8797618622665130338
(lp2559
S'bev\xc3\xa6gelse'
p2560
a(dp2561
g12
I2
sasI373695132700231327
(lp2562
S'statistik'
p2563
a(dp2564
g14
I1
sg27
I1
sg107
I1
sg317
I1
sasI5627584484631733920
(lp2565
S'svagere'
p2566
a(dp2567
g13
I2
sasI7943914258658201250
(lp2568
S'codan'
p2569
a(dp2570
g14
I1
sasI-8112505822251569500
(lp2571
S'sl\xc3\xa5r'
p2572
a(dp2573
g20
I1
sasI194046052511695814
(lp2574
S'demdkk'
p2575
a(dp2576
g12
I1
sg13
I1
sg5
I1
sasI-4177197833195190618
(lp2577
S'for'
p2578
a(dp2579
g9
I1
sg10
I4
sg317
I1
sg11
I1
sg12
I1
sg13
I2
sg148
I1
sg14
I2
sg27
I1
sg15
I4
sg107
I1
sg20
I1
sg72
I1
sg16
I1
sg62
I1
sg117
I1
sasI-3816755453817598360
(lp2580
S'falder'
p2581
a(dp2582
g14
I4
sasI533340892978904749
(lp2583
S'harmoniserede'
p2584
a(dp2585
g27
I1
sasI3008991115395782318
(lp2586
S'per'
p2587
a(dp2588
g12
I1
sasI3811866068707518128
(lp2589
S'medarbejdere'
p2590
a(dp2591
g9
I1
sasI-5915637481343082829
(lp2592
S'analytikerne'
p2593
a(dp2594
g20
I3
sasI-8844931991665242444
(lp2595
S'919'
p2596
a(dp2597
g16
I1
sasI-2587596731042821858
(lp2598
S'analytikere'
p2599
a(dp2600
g20
I2
sasI5966264222336546491
(lp2601
S'tirsdag'
p2602
a(dp2603
g27
I1
sg10
I1
sg317
I1
sg20
I2
sg12
I3
sg107
I1
sg13
I2
sg5
I1
sg15
I1
sg148
I1
sg72
I1
sg4
I1
sasI-3214654429105953090
(lp2604
S'427'
p2605
a(dp2606
g16
I1
sasI-7522951171490273597
(lp2607
S'konsensus-estimatet'
p2608
a(dp2609
g12
I1
sasI-9039799443129450890
(lp2610
S'procents'
p2611
a(dp2612
g20
I1
sasI-1840386907516881210
(lp2613
S'sted'
p2614
a(dp2615
g10
I1
sasI-509529383348783415
(lp2616
S'fomc'
p2617
a(dp2618
g62
I1
sasI-9045770427422963081
(lp2619
S'ledelse'
p2620
a(dp2621
g34
I1
sasI7664967069515444627
(lp2622
S's\xc3\xa6tte'
p2623
a(dp2624
g148
I1
sasI5052846071648386765
(lp2625
S'fordi'
p2626
a(dp2627
g14
I1
sasI-2088598916603095346
(lp2628
S'306'
p2629
a(dp2630
g16
I5
sg9
I1
sasI8639268678042072013
(lp2631
S'kan'
p2632
a(dp2633
g34
I1
sg10
I1
sg20
I4
sasI-1069744789404530991
(lp2634
S'n\xc3\xa6stved'
p2635
a(dp2636
g79
I1
sasI5647160299031520978
(lp2637
S'st\xc3\xa6rkere'
p2638
a(dp2639
g12
I1
sasI2947585029313015507
(lp2640
S'forklaringerne'
p2641
a(dp2642
g14
I1
sasI12544075362113236
(lp2643
S'bp'
p2644
a(dp2645
g13
I1
sasI7040042295063511
(lp2646
S'70'
p2647
a(dp2648
g34
I1
sasI4334090250797981400
(lp2649
S'svagt'
p2650
a(dp2651
g15
I1
sasI-2646637327864700636
(lp2652
S'halv\xc3\x85r'
p2653
a(dp2654
g9
I1
sg117
I1
sasI6635549834131406554
(lp2655
S'driftsresultat'
p2656
a(dp2657
g72
I1
sasI-8412160027359938852
(lp2658
S'bev\xc3\xa6gede'
p2659
a(dp2660
g12
I1
sasI-6646101437332295971
(lp2661
S'tyske'
p2662
a(dp2663
g12
I1
sg62
I1
sg13
I2
sg10
I2
sg11
I3
sasI6601208548855484126
(lp2664
S'256276'
p2665
a(dp2666
g4
I1
sasI8177098147167953338
(lp2667
S'finansposter'
p2668
a(dp2669
g9
I1
sasI14208085359128290
(lp2670
S'om'
p2671
a(dp2672
g62
I1
sg20
I1
sg15
I2
sg117
I2
sg11
I4
sasI6943999512835726404
(lp2673
S'handle'
p2674
a(dp2675
g62
I1
sasI14208085359128296
(lp2676
S'og'
p2677
a(dp2678
g9
I1
sg10
I3
sg34
I2
sg11
I6
sg12
I3
sg13
I4
sg5
I1
sg14
I8
sg15
I3
sg148
I2
sg20
I8
sg4
I1
sg16
I3
sg79
I1
sg62
I4
sasI-5304914473239318807
(lp2679
S'neds\xc3\xa6ttes'
p2680
a(dp2681
g13
I1
sasI6387157653126356714
(lp2682
S'm\xc3\xa5'
p2683
a(dp2684
g20
I1
sasI7040042295063506
(lp2685
S'75'
p2686
a(dp2687
g9
I1
sasI709249584425918191
(lp2688
S'anden'
p2689
a(dp2690
g13
I1
sg15
I1
sasI709249584425918197
(lp2691
S'andet'
p2692
a(dp2693
g148
I1
sg11
I1
sasI6064607537274281718
(lp2694
S'fabrikken'
p2695
a(dp2696
g10
I1
sasI-3600737715521779604
(lp2697
S'forretningsomfang'
p2698
a(dp2699
g34
I1
sasI8012930925436948217
(lp2700
S'bankens'
p2701
a(dp2702
g79
I1
sg20
I1
sasI6988305665390972666
(lp2703
S'industri'
p2704
a(dp2705
g4
I1
sg15
I5
sasI14208085359128316
(lp2706
S'os'
p2707
a(dp2708
g10
I1
sasI7334085250535980798
(lp2709
S'sk\xc3\xb8n'
p2710
a(dp2711
g14
I1
sasI-8272618129289552129
(lp2712
S'kapital'
p2713
a(dp2714
g10
I1
sasI-6943205220589760768
(lp2715
S'gennem'
p2716
a(dp2717
g79
I1
sasI1045775774998593291
(lp2718
S'stigningspotentialet'
p2719
a(dp2720
g11
I1
sasI-369175421998790900
(lp2721
S'som'
p2722
a(dp2723
g72
I1
sg20
I3
sg15
I3
sg117
I2
sg11
I1
sasI4396791993383581455
(lp2724
S'tilfreds'
p2725
a(dp2726
g34
I1
sg20
I1
sasI-3214654429104953090
(lp2727
S'430'
p2728
a(dp2729
g9
I2
sasI-369175421998790890
(lp2730
S'sow'
p2731
a(dp2732
g15
I1
sasI-8321020616853971171
(lp2733
S'mere'
p2734
a(dp2735
g79
I1
sg148
I1
sasI7143726372713334559
(lp2736
S'40-50'
p2737
a(dp2738
g10
I1
sasI-4166584487118698720
(lp2739
S'novo'
p2740
a(dp2741
g148
I1
sasI-3895909850302925023
(lp2742
S'st\xc3\xb8rrelsesordenen'
p2743
a(dp2744
g12
I1
sasI6400038450057767
(lp2745
S'23'
p2746
a(dp2747
g27
I2
sasI-1137900044494306449
(lp2748
S'udsving'
p2749
a(dp2750
g20
I1
sasI-6429308858210906330
(lp2751
S'her'
p2752
a(dp2753
g20
I3
sasI659475584140336936
(lp2754
S'1638'
p2755
a(dp2756
g34
I1
sasI-5610699643178391766
(lp2757
S'udsalg'
p2758
a(dp2759
g14
I1
sasI-1750315427686531284
(lp2760
S'38657'
p2761
a(dp2762
g5
I1
sasI-5358811177836521682
(lp2763
S'tinglev'
p2764
a(dp2765
g10
I3
sasI7969715180687232817
(lp2766
S'niveauet'
p2767
a(dp2768
g12
I1
sasI8032656381024429877
(lp2769
S'usdjpy'
p2770
a(dp2771
g12
I1
sg13
I1
sasI-509637384071784649
(lp2772
S'f\xc3\xb8r'
p2773
a(dp2774
g20
I1
sg12
I1
sg9
I1
sg72
I1
sg16
I4
sg79
I2
sasI-3747341959701364936
(lp2775
S'var'
p2776
a(dp2777
g13
I1
sg79
I1
sg117
I1
sg148
I1
sasI-6178101359548679062
(lp2778
S'varegrupper'
p2779
a(dp2780
g14
I2
sasI6736223778810509114
(lp2781
S'kryds'
p2782
a(dp2783
g13
I1
sasI-5004781203098461558
(lp2784
S'succeskriterier'
p2785
a(dp2786
g117
I1
sasI5908960196312774462
(lp2787
S'rentemarginal'
p2788
a(dp2789
g34
I1
sasI7800574324170577547
(lp2790
S'nettopriserne'
p2791
a(dp2792
g14
I2
sasI-6735006527966343356
(lp2793
S'dagen'
p2794
a(dp2795
g148
I1
sasI2775333965907739453
(lp2796
S'overstige'
p2797
a(dp2798
g117
I1
sasI-509529383369783482
(lp2799
S'form'
p2800
a(dp2801
g34
I1
sasI1966453961508984649
(lp2802
S'poster'
p2803
a(dp2804
g16
I3
sg9
I1
sg20
I1
sasI4601196548841484106
(lp2805
S'254836'
p2806
a(dp2807
g4
I1
sasI-3708420357069555893
(lp2808
S'm\xc3\x85neder'
p2809
a(dp2810
g11
I1
sasI2461898972730738513
(lp2811
S'12025'
p2812
a(dp2813
g4
I1
sasI2461898972730738517
(lp2814
S'12021'
p2815
a(dp2816
g4
I1
sg11
I1
sasI2461898972730738518
(lp2817
S'12022'
p2818
a(dp2819
g148
I1
sasI-1767700746450892967
(lp2820
S'renteforh\xc3\xb8jelse'
p2821
a(dp2822
g62
I1
sasI-5234710515371000177
(lp2823
S'besk\xc3\x86ftigelse-ams'
p2824
a(dp2825
g15
I1
sasI6061268273748954975
(lp2826
S'568945'
p2827
a(dp2828
g4
I1
sasI5355802772548603745
(lp2829
S'20327'
p2830
a(dp2831
g16
I1
sasI-7133450149703852741
(lp2832
S'd\xc3\xa6kker'
p2833
a(dp2834
g79
I1
sasI-2997541519501578266
(lp2835
S'9809'
p2836
a(dp2837
g5
I1
sasI4318272311071570633
(lp2838
S'mirakler'
p2839
a(dp2840
g20
I1
sasI-8504358643347863701
(lp2841
S'positiv'
p2842
a(dp2843
g12
I1
sg15
I1
sasI-4933725202946627732
(lp2844
S'm\xc3\xa6rkes'
p2845
a(dp2846
g13
I1
sasI2278646190458419858
(lp2847
S'stiger'
p2848
a(dp2849
g14
I1
sasI7974243869141538671
(lp2850
S'v\xc3\xa6kst'
p2851
a(dp2852
g34
I1
sasI-6096295725256708233
(lp2853
S'internationale'
p2854
a(dp2855
g12
I1
sg14
I1
sasI-1646382384132176008
(lp2856
S'h\xc3\xb8jeste'
p2857
a(dp2858
g12
I1
sg148
I1
sasI14976089973135225
(lp2859
S'ud'
p2860
a(dp2861
g12
I2
sg148
I1
sasI-3505190881281949718
(lp2862
S'l\xc3\xb8ber'
p2863
a(dp2864
g20
I1
sasI331739290073692031
(lp2865
S'pflug'
p2866
a(dp2867
g14
I2
sasI163512108409620354
(lp2868
S'153'
p2869
a(dp2870
g16
I1
sasI4440838465643751299
(lp2871
S'f\xc3\xb8lge'
p2872
a(dp2873
g11
I1
sasI-3359843741937342586
(lp2874
S'fremstiller'
p2875
a(dp2876
g10
I1
sasI12416074593111943
(lp2877
S'af'
p2878
a(dp2879
g9
I1
sg117
I7
sg34
I2
sg11
I6
sg12
I1
sg13
I7
sg148
I2
sg14
I2
sg15
I7
sg107
I1
sg20
I5
sg72
I1
sg16
I2
sasI-5998686833527298168
(lp2880
S'samhandelsudvikling'
p2881
a(dp2882
g12
I1
sasI163512108409620361
(lp2883
S'158'
p2884
a(dp2885
g16
I1
sasI7608095572492805783
(lp2886
S'overraskende'
p2887
a(dp2888
g11
I1
sasI-4674961400622013590
(lp2889
S'diskontobanken'
p2890
a(dp2891
g16
I2
sg79
I1
sasI-1112718823518571248
(lp2892
S'seika'
p2893
a(dp2894
g117
I1
sasI-5713114300150923377
(lp2895
S'forventningerne'
p2896
a(dp2897
g13
I2
sasI-6492716066226515304
(lp2898
S'idet'
p2899
a(dp2900
g34
I1
sasI7596456322728097682
(lp2901
S'f\xc3\xb8devarer'
p2902
a(dp2903
g14
I1
sasI12416074593111957
(lp2904
S'at'
p2905
a(dp2906
g10
I4
sg11
I2
sg12
I1
sg13
I1
sg148
I2
sg14
I2
sg15
I3
sg20
I9
sg72
I1
sg79
I1
sg117
I3
sasI7168043064064665
(lp2907
S'83'
p2908
a(dp2909
g79
I1
sasI3338128635232630936
(lp2910
S'parkinson&apos;s'
p2911
a(dp2912
g117
I1
sasI-2840639807803847697
(lp2913
S'afg\xc3\xb8r'
p2914
a(dp2915
g11
I1
sasI1076504857021173660
(lp2916
S'risikoen'
p2917
a(dp2918
g11
I1
sasI4194066052513695645
(lp2919
S'dealer'
p2920
a(dp2921
g13
I1
sasI-7823607590891614306
(lp2922
S'vore'
p2923
a(dp2924
g10
I1
sasI-3641395708691957435
(lp2925
S'regnskabstal'
p2926
a(dp2927
g16
I1
sg9
I1
sasI-9034121352644733020
(lp2928
S'tyskland'
p2929
a(dp2930
g10
I1
sasI13696082283123697
(lp2931
S'kr'
p2932
a(dp2933
g10
I1
sg20
I10
sg34
I3
sg9
I6
sg72
I3
sg16
I4
sg79
I5
sg117
I3
sasI731534857460930473
(lp2934
S'eller'
p2935
a(dp2936
g13
I1
sg10
I1
sg11
I1
sasI-544024803604443222
(lp2937
S'buba&apos;s'
p2938
a(dp2939
g11
I1
sasI6656039988060075
(lp2940
S'45'
p2941
a(dp2942
g72
I1
sg117
I1
sasI-1495230934635649104
(lp2943
S'til'
p2944
a(dp2945
g27
I4
sg10
I5
sg34
I6
sg11
I2
sg12
I4
sg13
I5
sg148
I2
sg14
I7
sg15
I4
sg317
I2
sg107
I2
sg20
I7
sg72
I1
sg16
I1
sg79
I3
sg62
I1
sg117
I3
sasI14080084590127025
(lp2946
S'ny'
p2947
a(dp2948
g148
I1
sasI7294182167819536307
(lp2949
S'prisindeksene'
p2950
a(dp2951
g14
I1
sasI659477584119336885
(lp2952
S'1442'
p2953
a(dp2954
g13
I1
sasI659477584119336887
(lp2955
S'1440'
p2956
a(dp2957
g4
I1
sasI-3214654429108953100
(lp2958
S'476'
p2959
a(dp2960
g9
I1
sasI12928077669116575
(lp2961
S'er'
p2962
a(dp2963
g117
I4
sg34
I3
sg11
I3
sg12
I2
sg13
I5
sg148
I1
sg14
I7
sg15
I3
sg317
I2
sg107
I2
sg20
I3
sg62
I1
sg79
I4
sasI14080084590127037
(lp2964
S'nu'
p2965
a(dp2966
g10
I1
sg11
I1
sasI-6921489585647573058
(lp2967
S'toppet'
p2968
a(dp2969
g10
I1
sasI5333976250212980672
(lp2970
S'siden'
p2971
a(dp2972
g12
I1
sasI-6465548148953651552
(lp2973
S'igennem'
p2974
a(dp2975
g20
I2
sasI-1840386907512881214
(lp2976
S'stat'
p2977
a(dp2978
g5
I1
sasI-8181533600703893556
(lp2979
S'drift'
p2980
a(dp2981
g9
I1
sasI1931443171865069517
(lp2982
S'virksomheder'
p2983
a(dp2984
g15
I11
sasI6893815262227134418
(lp2985
S'neurosearch&apos;'
p2986
a(dp2987
g117
I1
sasI3567100015673663446
(lp2988
S'overvejende'
p2989
a(dp2990
g11
I1
sasI-9092782511295848489
(lp2991
S'tiden'
p2992
a(dp2993
g15
I1
sg20
I2
sasI1816613195885033432
(lp2994
S'kort'
p2995
a(dp2996
g11
I1
sasI-2438169348940660775
(lp2997
S'markant'
p2998
a(dp2999
g20
I1
sasI-791025126829717542
(lp3000
S'danske'
p3001
a(dp3002
g11
I1
sg20
I1
sg12
I1
sg13
I1
sg148
I1
sg62
I1
sasI8997912964704133084
(lp3003
S'midtbank'
p3004
a(dp3005
g11
I3
sasI4279504823524419237
(lp3006
S'opfyldt'
p3007
a(dp3008
g117
I1
sasI3075141344676399072
(lp3009
S'jones'
p3010
a(dp3011
g4
I1
sasI451963802710119419
(lp3012
S'faldende'
p3013
a(dp3014
g34
I1
sg107
I1
sasI-7171914474853176043
(lp3015
S'statens'
p3016
a(dp3017
g62
I1
sasI5812604959362062310
(lp3018
S'\xc3\x98konomerne'
p3019
a(dp3020
g14
I1
sg13
I1
sasI3483429364586553320
(lp3021
S'niveau'
p3022
a(dp3023
g12
I2
sg72
I2
sasI-5323575097983393814
(lp3024
S'4392'
p3025
a(dp3026
g20
I1
sasI-6496937506804979733
(lp3027
S'interval'
p3028
a(dp3029
g62
I1
sasI-3505190881281949716
(lp3030
S'l\xc3\xb8bet'
p3031
a(dp3032
g13
I1
sg11
I1
sasI6707680453094677451
(lp3033
S'oplysninger'
p3034
a(dp3035
g15
I1
sasI840646671352117231
(lp3036
S'heath'
p3037
a(dp3038
g13
I1
sasI7746269624498784243
(lp3039
S'mindst'
p3040
a(dp3041
g15
I1
sasI4814037714606610420
(lp3042
S'2006'
p3043
a(dp3044
g62
I1
sg5
I1
sasI-2060012158853353815
(lp3045
S'ekstraordin\xc3\xa6re'
p3046
a(dp3047
g20
I1
sasI-7861126545168542721
(lp3048
S'angsttilstande'
p3049
a(dp3050
g117
I1
sasI-8976725156954234881
(lp3051
S'bilfinansiering'
p3052
a(dp3053
g34
I1
sas.